ccopy_reg
_reconstructor
p1
(cpsychopy.data
ExperimentHandler
p2
c__builtin__
object
p3
NtRp4
(dp5
S'originPath'
p6
NsS'dataFileName'
p7
VC:\u005cUsers\u005cPublic\u005cDocuments\u005cprosopagnosie\u005cfamousFaces\u005cdata/14_famFaceGrey_2017_Feb_08_1228
p8
sS'runtimeInfo'
p9
NsS'name'
p10
S'famFaceGrey'
p11
sS'dataNames'
p12
(lp13
S'key_resp_2.keys'
p14
aS'key_resp_2.rt'
p15
aS'ratingBekannt.response'
p16
aS'ratingBekannt.rt'
p17
aS'key_resp_5.keys'
p18
aS'ratingK1.response'
p19
aS'ratingK1.rt'
p20
aS'ratingK2.response'
p21
aS'ratingK2.rt'
p22
aS'ratingK3.response'
p23
aS'ratingK3.rt'
p24
aS'key_resp_6.keys'
p25
aS'inputText'
p26
aS'key_resp_4.keys'
p27
aS'key_resp_4.rt'
p28
asS'autoLog'
p29
I01
sS'extraInfo'
p30
(dp31
S'date'
p32
V2017_Feb_08_1228
p33
sS'frameRate'
p34
cnumpy.core.multiarray
scalar
p35
(cnumpy
dtype
p36
(S'f8'
I0
I1
tRp37
(I3
S'<'
NNNI-1
I-1
I0
tbS'\x0e\xee\xed\xe9\x93\x02N@'
tRp38
sS'expName'
p39
g11
sVsession
p40
V001
p41
sVparticipant
p42
V14
p43
ssS'loopsUnfinished'
p44
(lp45
sS'saveWideText'
p46
I00
sS'thisEntry'
p47
(dp48
sS'version'
p49
S''
sS'_paramNamesSoFar'
p50
(lp51
S'num'
p52
aS'pic'
p53
asS'entries'
p54
(lp55
(dp56
g40
g41
sg15
F56.575958044415529
sg39
g11
sg42
g43
sg32
g33
sg34
g38
sg14
S'space'
p57
sa(dp58
g20
F14.747
sg39
g11
sS'trials.thisIndex'
p59
g35
(g36
(S'i4'
I0
I1
tRp60
(I3
S'<'
NNNI-1
I-1
I0
tbS'J\x00\x00\x00'
tRp61
sg25
Nsg53
V./greyInner/GuentherJauch9_1_cut.png
p62
sg34
g38
sg24
Nsg52
g35
(g36
(S'i8'
I0
I1
tRp63
(I3
S'<'
NNNI-1
I-1
I0
tbS'K\x00\x00\x00\x00\x00\x00\x00'
tRp64
sg32
g33
sg26
S''
sg28
(lp65
F10.030012587445526
asS'trials.thisN'
p66
I0
sg40
g41
sg16
V2.nein
p67
sg17
F8.8550000000000004
sg27
(lp68
S'return'
p69
asS'trials.thisRepN'
p70
I0
sg42
g43
sg22
Nsg19
S'act'
p71
sS'trials.thisTrialN'
p72
I0
sg23
Nsg21
Nsg18
Nsa(dp73
g20
Nsg39
g11
sS'trials.thisIndex'
p74
g35
(g60
S'\x91\x00\x00\x00'
tRp75
sg25
Nsg53
V./greyInner/MilaKunis1_3_cut.png
p76
sg34
g38
sg24
Nsg52
g35
(g63
S'\x92\x00\x00\x00\x00\x00\x00\x00'
tRp77
sg32
g33
sg26
S''
sg28
(lp78
F46.449473470131124
asS'trials.thisN'
p79
I1
sg40
g41
sg16
V1.ja
p80
sg17
F5.4569999999999999
sg27
(lp81
S'return'
p82
asS'trials.thisRepN'
p83
I0
sg42
g43
sg22
F8.9540000000000006
sg19
NsS'trials.thisTrialN'
p84
I1
sg23
Nsg21
S'music'
p85
sg18
Nsa(dp86
g20
F6.399
sg39
g11
sS'trials.thisIndex'
p87
g35
(g60
S'T\x00\x00\x00'
tRp88
sg25
Nsg53
V./greyInner/HughLaurie(DrHouse)9_2_cut.png
p89
sg34
g38
sg24
Nsg52
g35
(g63
S'U\x00\x00\x00\x00\x00\x00\x00'
tRp90
sg32
g33
sg26
S'doktor haus'
p91
sg28
(lp92
F2.8159371679903415
aF2.932699192144355
aF4.7320221518493781
aF5.6483560617325566
aF5.7815443165309262
aF5.8981825192331598
aF7.1311243500967976
aF7.2810021967070497
aF8.080678336249548
aF8.2138723651041801
aF8.2805386682193785
aF9.4466720900018117
asS'trials.thisN'
p93
I2
sg40
g41
sg16
g80
sg17
F3.7029999999999998
sg27
(lp94
S'd'
aS'o'
aS'k'
aS't'
aS'o'
aS'r'
aS'space'
p95
aS'h'
aS'a'
aS'u'
aS's'
aS'return'
p96
asS'trials.thisRepN'
p97
I0
sg42
g43
sg22
Nsg19
g71
sS'trials.thisTrialN'
p98
I2
sg23
Nsg21
Nsg18
Nsa(dp99
g20
Nsg39
g11
sS'trials.thisIndex'
p100
g35
(g60
S'\xd3\x00\x00\x00'
tRp101
sg25
Nsg53
V./greyInner/notfamousface11_1_cut.png
p102
sg34
g38
sg24
F6.1500000000000004
sg52
g35
(g63
S'\xd4\x00\x00\x00\x00\x00\x00\x00'
tRp103
sg32
g33
sg26
S''
sg28
(lp104
F11.679504213778273
asS'trials.thisN'
p105
I3
sg40
g41
sg16
g67
sg17
F3.2669999999999999
sg27
(lp106
S'return'
p107
asS'trials.thisRepN'
p108
I0
sg42
g43
sg22
Nsg19
NsS'trials.thisTrialN'
p109
I3
sg23
S'sport'
p110
sg21
Nsg18
Nsa(dp111
g20
F16.402999999999999
sg39
g11
sS'trials.thisIndex'
p112
g35
(g60
S'\x89\x00\x00\x00'
tRp113
sg25
Nsg53
V./greyInner/LisaEdelstein(DrLisaCuddy)2_2_cut.png
p114
sg34
g38
sg24
Nsg52
g35
(g63
S'\x8a\x00\x00\x00\x00\x00\x00\x00'
tRp115
sg32
g33
sg26
S'doktor haus'
p116
sg28
(lp117
F3.4157196143441979
aF3.5491471717377863
aF3.7489888984127901
aF4.2487791076637222
aF4.3655392071323149
aF4.4487590909320716
aF5.1650594471284421
aF5.2817287655834662
aF5.848199392312381
aF5.998064407684069
aF6.0647807526293036
aF6.931007393359323
asS'trials.thisN'
p118
I4
sg40
g41
sg16
g80
sg17
F13.952999999999999
sg27
(lp119
S'd'
aS'o'
aS'k'
aS't'
aS'o'
aS'r'
aS'space'
p120
aS'h'
aS'a'
aS'u'
aS's'
aS'return'
p121
asS'trials.thisRepN'
p122
I0
sg42
g43
sg22
Nsg19
g71
sS'trials.thisTrialN'
p123
I4
sg23
Nsg21
Nsg18
Nsa(dp124
g20
Nsg39
g11
sS'trials.thisIndex'
p125
g35
(g60
S'Y\x00\x00\x00'
tRp126
sg25
Nsg53
V./greyInner/Ice-T(OdafinFinTutuola)7_1_cut.png
p127
sg34
g38
sg24
F6.2889999999999997
sg52
g35
(g63
S'Z\x00\x00\x00\x00\x00\x00\x00'
tRp128
sg32
g33
sg26
S'schwarzneger'
p129
sg28
(lp130
F1.4998582148145942
aF1.7163667578533932
aF2.2828778029834211
aF3.0151001221529441
aF3.2650452686084463
aF3.6822440039613866
aF3.8819975158712623
aF5.3312361743410293
aF6.0312116666755173
aF6.3978521148437721
aF6.7809794212589622
aF6.9306763474087347
aF8.2969520676251705
asS'trials.thisN'
p131
I5
sg40
g41
sg16
g80
sg17
F6.3869999999999996
sg27
(lp132
S's'
aS'c'
aS'h'
aS'w'
aS'a'
aS'r'
aS'z'
aS'n'
aS'e'
aS'g'
aS'e'
aS'r'
aS'return'
p133
asS'trials.thisRepN'
p134
I0
sg42
g43
sg22
Nsg19
NsS'trials.thisTrialN'
p135
I5
sg23
S'polit'
p136
sg21
Nsg18
Nsa(dp137
g20
F6.6760000000000002
sg39
g11
sS'trials.thisIndex'
p138
g35
(g60
S'f\x00\x00\x00'
tRp139
sg25
Nsg53
V./greyInner/JimParsons(SheldonCooper)6_1_cut.png
p140
sg34
g38
sg24
Nsg52
g35
(g63
S'g\x00\x00\x00\x00\x00\x00\x00'
tRp141
sg32
g33
sg26
S'lost'
p142
sg28
(lp143
F20.292087745141544
aF20.408978402459979
aF21.142034431344655
aF21.258774963174801
aF22.025046256614587
asS'trials.thisN'
p144
I6
sg40
g41
sg16
g80
sg17
F5.8419999999999996
sg27
(lp145
S'l'
aS'o'
aS's'
aS't'
aS'return'
p146
asS'trials.thisRepN'
p147
I0
sg42
g43
sg22
Nsg19
g71
sS'trials.thisTrialN'
p148
I6
sg23
Nsg21
Nsg18
Nsa(dp149
g20
F15.916
sg39
g11
sS'trials.thisIndex'
p150
g35
(g60
S'x\x00\x00\x00'
tRp151
sg25
Nsg53
V./greyInner/KaleyCuoco(Penny)10_1_cut.png
p152
sg34
g38
sg24
Nsg52
g35
(g63
S'y\x00\x00\x00\x00\x00\x00\x00'
tRp153
sg32
g33
sg26
S'olsen schwester'
p154
sg28
(lp155
F1.9663279433571006
aF2.166181859707649
aF2.5828519480382965
aF2.8160427049278951
aF2.9657973716493871
aF8.4305570168908162
aF9.2134627278192056
aF9.4466894121760561
aF9.7298886376811424
aF10.212898474108442
aF10.363136557738471
aF10.596399490343174
aF10.896281250481479
aF11.179304367240547
aF11.312731603853535
aF11.629181379819784
asS'trials.thisN'
p156
I7
sg40
g41
sg16
g80
sg17
F3.4079999999999999
sg27
(lp157
S'o'
aS'l'
aS's'
aS'e'
aS'n'
aS'space'
p158
aS's'
aS'c'
aS'h'
aS'w'
aS'e'
aS's'
aS't'
aS'e'
aS'r'
aS'return'
p159
asS'trials.thisRepN'
p160
I0
sg42
g43
sg22
Nsg19
g71
sS'trials.thisTrialN'
p161
I7
sg23
Nsg21
Nsg18
Nsa(dp162
g20
F1.7789999999999999
sg39
g11
sS'trials.thisIndex'
p163
g35
(g60
S'c\x00\x00\x00'
tRp164
sg25
Nsg53
V./greyInner/JasonSegel(Marshall)9_1_cut.png
p165
sg34
g38
sg24
Nsg52
g35
(g63
S'd\x00\x00\x00\x00\x00\x00\x00'
tRp166
sg32
g33
sg26
S''
sg28
(lp167
F0.86723645919482806
asS'trials.thisN'
p168
I8
sg40
g41
sg16
g80
sg17
F5.3600000000000003
sg27
(lp169
S'return'
p170
asS'trials.thisRepN'
p171
I0
sg42
g43
sg22
Nsg19
g71
sS'trials.thisTrialN'
p172
I8
sg23
Nsg21
Nsg18
Nsa(dp173
g20
Nsg39
g11
sS'trials.thisIndex'
p174
g35
(g60
S'a\x00\x00\x00'
tRp175
sg25
Nsg53
V./greyInner/JasonSegel(Marshall)6_1_cut.png
p176
sg34
g38
sg24
Nsg52
g35
(g63
S'b\x00\x00\x00\x00\x00\x00\x00'
tRp177
sg32
g33
sg26
S''
sg28
(lp178
F1.8331149884270417
asS'trials.thisN'
p179
I9
sg40
g41
sg16
g67
sg17
F15.887
sg27
(lp180
S'return'
p181
asS'trials.thisRepN'
p182
I0
sg42
g43
sg22
F5.4649999999999999
sg19
NsS'trials.thisTrialN'
p183
I9
sg23
Nsg21
g85
sg18
Nsa(dp184
g20
Nsg39
g11
sS'trials.thisIndex'
p185
g35
(g60
S'+\x00\x00\x00'
tRp186
sg25
Nsg53
V./greyInner/CobieSmulders(Robin)4_7_cut.png
p187
sg34
g38
sg24
Nsg52
g35
(g63
S',\x00\x00\x00\x00\x00\x00\x00'
tRp188
sg32
g33
sg26
S''
sg28
(lp189
F1.066663736866758
asS'trials.thisN'
p190
I10
sg40
g41
sg16
g67
sg17
F8.3629999999999995
sg27
(lp191
S'return'
p192
asS'trials.thisRepN'
p193
I0
sg42
g43
sg22
F49.215000000000003
sg19
NsS'trials.thisTrialN'
p194
I10
sg23
Nsg21
g85
sg18
Nsa(dp195
g20
Nsg39
g11
sS'trials.thisIndex'
p196
g35
(g60
S'\xd9\x00\x00\x00'
tRp197
sg25
Nsg53
V./greyInner/notfamousface3_3_cut.png
p198
sg34
g38
sg24
Nsg52
g35
(g63
S'\xda\x00\x00\x00\x00\x00\x00\x00'
tRp199
sg32
g33
sg26
S''
sg28
(lp200
F0.75047475582141487
asS'trials.thisN'
p201
I11
sg40
g41
sg16
g80
sg17
F4.5510000000000002
sg27
(lp202
S'return'
p203
asS'trials.thisRepN'
p204
I0
sg42
g43
sg22
F3.6019999999999999
sg19
NsS'trials.thisTrialN'
p205
I11
sg23
Nsg21
g85
sg18
Nsa(dp206
g20
F7.6269999999999998
sg39
g11
sS'trials.thisIndex'
p207
g35
(g60
S'\xb2\x00\x00\x00'
tRp208
sg25
Nsg53
V./greyInner/Shakira7_1_cut.png
p209
sg34
g38
sg24
Nsg52
g35
(g63
S'\xb3\x00\x00\x00\x00\x00\x00\x00'
tRp210
sg32
g33
sg26
S''
sg28
(lp211
F1.1333451166865416
asS'trials.thisN'
p212
I12
sg40
g41
sg16
g67
sg17
F23.221
sg27
(lp213
S'return'
p214
asS'trials.thisRepN'
p215
I0
sg42
g43
sg22
Nsg19
S'dummy'
p216
sS'trials.thisTrialN'
p217
I12
sg23
Nsg21
Nsg18
Nsa(dp218
g20
Nsg39
g11
sS'trials.thisIndex'
p219
g35
(g60
S'\x13\x00\x00\x00'
tRp220
sg25
Nsg53
V./greyInner/BastianSchweinsteiger6_2_cut.png
p221
sg34
g38
sg24
F2.109
sg52
g35
(g63
S'\x14\x00\x00\x00\x00\x00\x00\x00'
tRp222
sg32
g33
sg26
S''
sg28
(lp223
F2.4826361266077583
asS'trials.thisN'
p224
I13
sg40
g41
sg16
g80
sg17
F2.4380000000000002
sg27
(lp225
S'return'
p226
asS'trials.thisRepN'
p227
I0
sg42
g43
sg22
Nsg19
NsS'trials.thisTrialN'
p228
I13
sg23
g110
sg21
Nsg18
Nsa(dp229
g20
F1.661
sg39
g11
sS'trials.thisIndex'
p230
g35
(g60
S'\x15\x00\x00\x00'
tRp231
sg25
Nsg53
V./greyInner/BenedictCumberbatch2_2_cut.png
p232
sg34
g38
sg24
Nsg52
g35
(g63
S'\x16\x00\x00\x00\x00\x00\x00\x00'
tRp233
sg32
g33
sg26
S''
sg28
(lp234
F1.5829045561149542
asS'trials.thisN'
p235
I14
sg40
g41
sg16
g80
sg17
F2.145
sg27
(lp236
S'return'
p237
asS'trials.thisRepN'
p238
I0
sg42
g43
sg22
Nsg19
g71
sS'trials.thisTrialN'
p239
I14
sg23
Nsg21
Nsg18
Nsa(dp240
g20
F7.5940000000000003
sg39
g11
sS'trials.thisIndex'
p241
g35
(g60
S'W\x00\x00\x00'
tRp242
sg25
Nsg53
V./greyInner/Ice-T(OdafinFinTutuola)5_1_cut.png
p243
sg34
g38
sg24
Nsg52
g35
(g63
S'X\x00\x00\x00\x00\x00\x00\x00'
tRp244
sg32
g33
sg26
S''
sg28
(lp245
F34.186971994538908
asS'trials.thisN'
p246
I15
sg40
g41
sg16
g80
sg17
F7.4939999999999998
sg27
(lp247
S'return'
p248
asS'trials.thisRepN'
p249
I0
sg42
g43
sg22
Nsg19
g71
sS'trials.thisTrialN'
p250
I15
sg23
Nsg21
Nsg18
Nsa(dp251
g20
Nsg39
g11
sS'trials.thisIndex'
p252
g35
(g60
S'd\x00\x00\x00'
tRp253
sg25
Nsg53
V./greyInner/JimParsons(SheldonCooper)1_1_cut.png
p254
sg34
g38
sg24
Nsg52
g35
(g63
S'e\x00\x00\x00\x00\x00\x00\x00'
tRp255
sg32
g33
sg26
S''
sg28
(lp256
F3.3998419191430003
asS'trials.thisN'
p257
I16
sg40
g41
sg16
g80
sg17
F4.0780000000000003
sg27
(lp258
S'return'
p259
asS'trials.thisRepN'
p260
I0
sg42
g43
sg22
F16.323
sg19
NsS'trials.thisTrialN'
p261
I16
sg23
Nsg21
g85
sg18
Nsa(dp262
g20
Nsg39
g11
sS'trials.thisIndex'
p263
g35
(g60
S'/\x00\x00\x00'
tRp264
sg25
Nsg53
V./greyInner/CristinMilioti(Tracy_Mutter)4_2_cut.png
p265
sg34
g38
sg24
Nsg52
g35
(g63
S'0\x00\x00\x00\x00\x00\x00\x00'
tRp266
sg32
g33
sg26
S''
sg28
(lp267
F0.91667907019655104
asS'trials.thisN'
p268
I17
sg40
g41
sg16
g67
sg17
F2.194
sg27
(lp269
S'return'
p270
asS'trials.thisRepN'
p271
I0
sg42
g43
sg22
F4.2089999999999996
sg19
NsS'trials.thisTrialN'
p272
I17
sg23
Nsg21
S'host'
p273
sg18
Nsa(dp274
g20
Nsg39
g11
sS'trials.thisIndex'
p275
g35
(g60
S'|\x00\x00\x00'
tRp276
sg25
Nsg53
V./greyInner/KaleyCuoco(Penny)7_1_cut.png
p277
sg34
g38
sg24
Nsg52
g35
(g63
S'}\x00\x00\x00\x00\x00\x00\x00'
tRp278
sg32
g33
sg26
S'britney'
p279
sg28
(lp280
F1.5163027299731766
aF1.8662988164451235
aF2.2162422948404128
aF3.7331230721047177
aF3.9654037734089798
aF6.0146580859891401
aF6.6312417559292953
aF9.8797238204242603
asS'trials.thisN'
p281
I18
sg40
g41
sg16
g80
sg17
F2.7909999999999999
sg27
(lp282
S'b'
aS'r'
aS'i'
aS't'
aS'n'
aS'e'
aS'y'
aS'return'
p283
asS'trials.thisRepN'
p284
I0
sg42
g43
sg22
F2.0249999999999999
sg19
NsS'trials.thisTrialN'
p285
I18
sg23
Nsg21
g85
sg18
Nsa(dp286
g20
Nsg39
g11
sS'trials.thisIndex'
p287
g35
(g60
S'2\x00\x00\x00'
tRp288
sg25
Nsg53
V./greyInner/DannFlorek(DonaldDonCragen)1_1_cut.png
p289
sg34
g38
sg24
F4.2279999999999998
sg52
g35
(g63
S'3\x00\x00\x00\x00\x00\x00\x00'
tRp290
sg32
g33
sg26
S''
sg28
(lp291
F1.4502802342467476
asS'trials.thisN'
p292
I19
sg40
g41
sg16
g67
sg17
F3.0790000000000002
sg27
(lp293
S'return'
p294
asS'trials.thisRepN'
p295
I0
sg42
g43
sg22
Nsg19
NsS'trials.thisTrialN'
p296
I19
sg23
g136
sg21
Nsg18
Nsa(dp297
g20
Nsg39
g11
sS'trials.thisIndex'
p298
g35
(g60
S']\x00\x00\x00'
tRp299
sg25
Nsg53
V./greyInner/JanHofer7_1_cut.png
p300
sg34
g38
sg24
F2.3420000000000001
sg52
g35
(g63
S'^\x00\x00\x00\x00\x00\x00\x00'
tRp301
sg32
g33
sg26
S''
sg28
(lp302
F0.98312852538401785
asS'trials.thisN'
p303
I20
sg40
g41
sg16
g67
sg17
F10.038
sg27
(lp304
S'return'
p305
asS'trials.thisRepN'
p306
I0
sg42
g43
sg22
Nsg19
NsS'trials.thisTrialN'
p307
I20
sg23
g136
sg21
Nsg18
Nsa(dp308
g20
F1.8600000000000001
sg39
g11
sS'trials.thisIndex'
p309
g35
(g60
S'}\x00\x00\x00'
tRp310
sg25
Nsg53
V./greyInner/KatjaBurkard1_1_cut.png
p311
sg34
g38
sg24
Nsg52
g35
(g63
S'~\x00\x00\x00\x00\x00\x00\x00'
tRp312
sg32
g33
sg26
S'friends'
p313
sg28
(lp314
F16.010657947412255
aF16.193890598295184
aF16.443957641515226
aF16.893808029275533
aF17.226799517031395
aF17.843403075390597
aF19.144325769746501
aF20.35892887387854
aF20.525681082135634
aF22.724565598422487
asS'trials.thisN'
p315
I21
sg40
g41
sg16
g80
sg17
F1.893
sg27
(lp316
S'f'
aS'r'
aS'i'
aS'e'
aS'n'
aS's'
aS'backspace'
p317
aS'd'
aS's'
aS'return'
p318
asS'trials.thisRepN'
p319
I0
sg42
g43
sg22
Nsg19
g71
sS'trials.thisTrialN'
p320
I21
sg23
Nsg21
Nsg18
Nsa(dp321
g20
Nsg39
g11
sS'trials.thisIndex'
p322
g35
(g60
S'\xd5\x00\x00\x00'
tRp323
sg25
Nsg53
V./greyInner/notfamousface1_2_cut.png
p324
sg34
g38
sg24
Nsg52
g35
(g63
S'\xd6\x00\x00\x00\x00\x00\x00\x00'
tRp325
sg32
g33
sg26
S''
sg28
(lp326
F0.98346181680062728
asS'trials.thisN'
p327
I22
sg40
g41
sg16
g67
sg17
F10.319000000000001
sg27
(lp328
S'return'
p329
asS'trials.thisRepN'
p330
I0
sg42
g43
sg22
F13.583
sg19
NsS'trials.thisTrialN'
p331
I22
sg23
Nsg21
g85
sg18
Nsa(dp332
g20
Nsg39
g11
sS'trials.thisIndex'
p333
g35
(g60
S'\x08\x00\x00\x00'
tRp334
sg25
Nsg53
V./greyInner/AngelaMerkel5_1_cut.png
p335
sg34
g38
sg24
F2.6259999999999999
sg52
g35
(g63
S'\t\x00\x00\x00\x00\x00\x00\x00'
tRp336
sg32
g33
sg26
S'merkel'
p337
sg28
(lp338
F1.2667264816227544
aF1.7999940334739222
aF1.9495716291057761
aF2.7494258020815323
aF3.1159668081527343
aF3.4326077695714048
aF4.3821171671716002
asS'trials.thisN'
p339
I23
sg40
g41
sg16
g80
sg17
F2.129
sg27
(lp340
S'm'
aS'e'
aS'r'
aS'k'
aS'e'
aS'l'
aS'return'
p341
asS'trials.thisRepN'
p342
I0
sg42
g43
sg22
Nsg19
NsS'trials.thisTrialN'
p343
I23
sg23
g136
sg21
Nsg18
Nsa(dp344
g20
Nsg39
g11
sS'trials.thisIndex'
p345
g35
(g60
S'\x12\x00\x00\x00'
tRp346
sg25
Nsg53
V./greyInner/BastianSchweinsteiger3_1_cut.png
p347
sg34
g38
sg24
Nsg52
g35
(g63
S'\x13\x00\x00\x00\x00\x00\x00\x00'
tRp348
sg32
g33
sg26
S''
sg28
(lp349
F1.0331831864587002
asS'trials.thisN'
p350
I24
sg40
g41
sg16
g67
sg17
F16.241
sg27
(lp351
S'return'
p352
asS'trials.thisRepN'
p353
I0
sg42
g43
sg22
F3.5950000000000002
sg19
NsS'trials.thisTrialN'
p354
I24
sg23
Nsg21
g273
sg18
Nsa(dp355
g20
F1.472
sg39
g11
sS'trials.thisIndex'
p356
g35
(g60
S'?\x00\x00\x00'
tRp357
sg25
Nsg53
V./greyInner/EmilyDeschanel6_12_cut.png
p358
sg34
g38
sg24
Nsg52
g35
(g63
S'@\x00\x00\x00\x00\x00\x00\x00'
tRp359
sg32
g33
sg26
S''
sg28
(lp360
F50.363992722121111
asS'trials.thisN'
p361
I25
sg40
g41
sg16
g80
sg17
F2.0880000000000001
sg27
(lp362
S'return'
p363
asS'trials.thisRepN'
p364
I0
sg42
g43
sg22
Nsg19
g71
sS'trials.thisTrialN'
p365
I25
sg23
Nsg21
Nsg18
Nsa(dp366
g20
F1.758
sg39
g11
sS'trials.thisIndex'
p367
g35
(g60
S'\xcf\x00\x00\x00'
tRp368
sg25
Nsg53
V./greyInner/WillSmith4_1_cut.png
p369
sg34
g38
sg24
Nsg52
g35
(g63
S'\xd0\x00\x00\x00\x00\x00\x00\x00'
tRp370
sg32
g33
sg26
S'merfi'
p371
sg28
(lp372
F1.3498369791159348
aF1.8497593501233496
aF2.0164413073489413
aF2.2171144982712576
aF2.6160251902856544
aF11.879033179015096
asS'trials.thisN'
p373
I26
sg40
g41
sg16
g80
sg17
F3.8730000000000002
sg27
(lp374
S'm'
aS'e'
aS'r'
aS'f'
aS'i'
aS'return'
p375
asS'trials.thisRepN'
p376
I0
sg42
g43
sg22
Nsg19
g71
sS'trials.thisTrialN'
p377
I26
sg23
Nsg21
Nsg18
Nsa(dp378
g20
Nsg39
g11
sS'trials.thisIndex'
p379
g35
(g60
S'I\x00\x00\x00'
tRp380
sg25
Nsg53
V./greyInner/GuentherJauch7_1_cut.png
p381
sg34
g38
sg24
F1.413
sg52
g35
(g63
S'J\x00\x00\x00\x00\x00\x00\x00'
tRp382
sg32
g33
sg26
S''
sg28
(lp383
F1.7998763068626431
asS'trials.thisN'
p384
I27
sg40
g41
sg16
g67
sg17
F2.4129999999999998
sg27
(lp385
S'return'
p386
asS'trials.thisRepN'
p387
I0
sg42
g43
sg22
Nsg19
NsS'trials.thisTrialN'
p388
I27
sg23
g136
sg21
Nsg18
Nsa(dp389
g20
Nsg39
g11
sS'trials.thisIndex'
p390
g35
(g60
S'\x8c\x00\x00\x00'
tRp391
sg25
Nsg53
V./greyInner/MariskaHargitay(Liv)13_1_cut.png
p392
sg34
g38
sg24
Nsg52
g35
(g63
S'\x8d\x00\x00\x00\x00\x00\x00\x00'
tRp393
sg32
g33
sg26
S''
sg28
(lp394
F0.96678601856910973
asS'trials.thisN'
p395
I28
sg40
g41
sg16
g67
sg17
F2.278
sg27
(lp396
S'return'
p397
asS'trials.thisRepN'
p398
I0
sg42
g43
sg22
F1.8620000000000001
sg19
NsS'trials.thisTrialN'
p399
I28
sg23
Nsg21
g85
sg18
Nsa(dp400
g20
F16.613
sg39
g11
sS'trials.thisIndex'
p401
g35
(g60
S'@\x00\x00\x00'
tRp402
sg25
Nsg53
V./greyInner/EmilyDeschanel8_3_cut.png
p403
sg34
g38
sg24
Nsg52
g35
(g63
S'A\x00\x00\x00\x00\x00\x00\x00'
tRp404
sg32
g33
sg26
S''
sg28
(lp405
F1.4500082119920989
asS'trials.thisN'
p406
I29
sg40
g41
sg16
g80
sg17
F15.564
sg27
(lp407
S'return'
p408
asS'trials.thisRepN'
p409
I0
sg42
g43
sg22
Nsg19
g216
sS'trials.thisTrialN'
p410
I29
sg23
Nsg21
Nsg18
Nsa(dp411
g20
Nsg39
g11
sS'trials.thisIndex'
p412
g35
(g60
S'\x00\x00\x00\x00'
tRp413
sg25
Nsg53
V./greyInner/AlysonHannigan(Lily)1_1_cut.png
p414
sg34
g38
sg24
Nsg52
g35
(g63
S'\x01\x00\x00\x00\x00\x00\x00\x00'
tRp415
sg32
g33
sg26
S'lindsey stirling'
p416
sg28
(lp417
F1.6831386620597186
aF1.7832790999655117
aF2.3162839322103537
aF3.1485899110539322
aF3.3322844865197112
aF3.5154135251505068
aF4.3149064987646852
aF4.5481617326277046
aF6.3645643537929573
aF7.3144481027720758
aF7.4310715495503246
aF7.5139780303525185
aF8.1472474427337147
aF8.2804613600073935
aF9.096827732924794
aF9.180039597200448
aF36.586097930578035
asS'trials.thisN'
p418
I30
sg40
g41
sg16
g80
sg17
F6.0789999999999997
sg27
(lp419
S'l'
aS'i'
aS'n'
aS'd'
aS's'
aS'e'
aS'y'
aS'space'
p420
aS's'
aS't'
aS'i'
aS'r'
aS'l'
aS'i'
aS'n'
aS'g'
aS'return'
p421
asS'trials.thisRepN'
p422
I0
sg42
g43
sg22
F13.606999999999999
sg19
NsS'trials.thisTrialN'
p423
I30
sg23
Nsg21
g85
sg18
Nsa(dp424
g20
Nsg39
g11
sS'trials.thisIndex'
p425
g35
(g60
S'\x1f\x00\x00\x00'
tRp426
sg25
Nsg53
V./greyInner/BritneySpears14_2_cut.png
p427
sg34
g38
sg24
Nsg52
g35
(g63
S' \x00\x00\x00\x00\x00\x00\x00'
tRp428
sg32
g33
sg26
S'britney spirs'
p429
sg28
(lp430
F1.6166863198468491
aF2.2829884724142175
aF2.4162456951198692
aF2.4996506695333665
aF3.2492471270852548
aF3.3660675333740073
aF3.7491451187397615
aF3.9986158301544492
aF5.0319440096081962
aF5.5648272658672795
aF5.6491817519254255
aF6.4813857224235107
aF6.8310764254219976
aF9.0969294204896869
asS'trials.thisN'
p431
I31
sg40
g41
sg16
g80
sg17
F6.1100000000000003
sg27
(lp432
S'b'
aS'r'
aS'i'
aS't'
aS'n'
aS'e'
aS'y'
aS'space'
p433
aS's'
aS'p'
aS'i'
aS'r'
aS's'
aS'return'
p434
asS'trials.thisRepN'
p435
I0
sg42
g43
sg22
F2.3109999999999999
sg19
NsS'trials.thisTrialN'
p436
I31
sg23
Nsg21
g85
sg18
Nsa(dp437
g20
F1.2969999999999999
sg39
g11
sS'trials.thisIndex'
p438
g35
(g60
S'\x9a\x00\x00\x00'
tRp439
sg25
Nsg53
V./greyInner/NeilPatrickHarris(Barney)3_7_cut.png
p440
sg34
g38
sg24
Nsg52
g35
(g63
S'\x9b\x00\x00\x00\x00\x00\x00\x00'
tRp441
sg32
g33
sg26
S''
sg28
(lp442
F1.3000921924467548
asS'trials.thisN'
p443
I32
sg40
g41
sg16
g80
sg17
F6.2000000000000002
sg27
(lp444
S'return'
p445
asS'trials.thisRepN'
p446
I0
sg42
g43
sg22
Nsg19
g71
sS'trials.thisTrialN'
p447
I32
sg23
Nsg21
Nsg18
Nsa(dp448
g20
F1.2629999999999999
sg39
g11
sS'trials.thisIndex'
p449
g35
(g60
S'\xd0\x00\x00\x00'
tRp450
sg25
Nsg53
V./greyInner/WillSmith5_1_cut.png
p451
sg34
g38
sg24
Nsg52
g35
(g63
S'\xd1\x00\x00\x00\x00\x00\x00\x00'
tRp452
sg32
g33
sg26
S'comedien'
p453
sg28
(lp454
F2.1830767513365572
aF2.366001452495766
aF3.215665851455924
aF3.3492708007197507
aF3.8490292526566918
aF3.9655234247093176
aF4.0660959545675723
aF5.414967062210053
aF6.681191842411863
asS'trials.thisN'
p455
I33
sg40
g41
sg16
g80
sg17
F6.7439999999999998
sg27
(lp456
S'c'
aS'o'
aS'm'
aS'e'
aS'd'
aS'i'
aS'e'
aS'n'
aS'return'
p457
asS'trials.thisRepN'
p458
I0
sg42
g43
sg22
Nsg19
g71
sS'trials.thisTrialN'
p459
I33
sg23
Nsg21
Nsg18
Nsa(dp460
g20
Nsg39
g11
sS'trials.thisIndex'
p461
g35
(g60
S'>\x00\x00\x00'
tRp462
sg25
Nsg53
V./greyInner/EmilyDeschanel5_1_cut.png
p463
sg34
g38
sg24
Nsg52
g35
(g63
S'?\x00\x00\x00\x00\x00\x00\x00'
tRp464
sg32
g33
sg26
S''
sg28
(lp465
F0.93347387816538685
asS'trials.thisN'
p466
I34
sg40
g41
sg16
g67
sg17
F3.6760000000000002
sg27
(lp467
S'return'
p468
asS'trials.thisRepN'
p469
I0
sg42
g43
sg22
F9.9900000000000002
sg19
NsS'trials.thisTrialN'
p470
I34
sg23
Nsg21
g85
sg18
Nsa(dp471
g20
F1.6599999999999999
sg39
g11
sS'trials.thisIndex'
p472
g35
(g60
S's\x00\x00\x00'
tRp473
sg25
Nsg53
V./greyInner/JudithRakers1_1_cut.png
p474
sg34
g38
sg24
Nsg52
g35
(g63
S't\x00\x00\x00\x00\x00\x00\x00'
tRp475
sg32
g33
sg26
S''
sg28
(lp476
F1.2494825803114509
asS'trials.thisN'
p477
I35
sg40
g41
sg16
g80
sg17
F3.3599999999999999
sg27
(lp478
S'return'
p479
asS'trials.thisRepN'
p480
I0
sg42
g43
sg22
Nsg19
g71
sS'trials.thisTrialN'
p481
I35
sg23
Nsg21
Nsg18
Nsa(dp482
g20
Nsg39
g11
sS'trials.thisIndex'
p483
g35
(g60
S'\xdd\x00\x00\x00'
tRp484
sg25
Nsg53
V./greyInner/notfamousface7_cut.png
p485
sg34
g38
sg24
Nsg52
g35
(g63
S'\xde\x00\x00\x00\x00\x00\x00\x00'
tRp486
sg32
g33
sg26
S''
sg28
(lp487
F0.78360982513731869
asS'trials.thisN'
p488
I36
sg40
g41
sg16
g67
sg17
F1.7649999999999999
sg27
(lp489
S'return'
p490
asS'trials.thisRepN'
p491
I0
sg42
g43
sg22
F1.2010000000000001
sg19
NsS'trials.thisTrialN'
p492
I36
sg23
Nsg21
g273
sg18
Nsa(dp493
g20
F5.2759999999999998
sg39
g11
sS'trials.thisIndex'
p494
g35
(g60
S'\x8a\x00\x00\x00'
tRp495
sg25
Nsg53
V./greyInner/LisaEdelstein(DrLisaCuddy)6_3_cut.png
p496
sg34
g38
sg24
Nsg52
g35
(g63
S'\x8b\x00\x00\x00\x00\x00\x00\x00'
tRp497
sg32
g33
sg26
S'serial comedien'
p498
sg28
(lp499
F1.8830567346049065
aF2.0495972274256928
aF3.2158246380313358
aF3.3823846984923875
aF3.9988576989999274
aF4.098728360117093
aF10.846043744259077
aF13.694895605045531
aF27.18958860483508
aF27.955961585839759
aF28.056095928905052
aF29.338830342800065
aF29.472081149884616
aF30.105020478657025
aF30.238524061138378
aF30.321890862618602
aF31.137781196590367
aF31.221321219789388
asS'trials.thisN'
p500
I37
sg40
g41
sg16
g80
sg17
F4.9720000000000004
sg27
(lp501
S's'
aS'e'
aS'r'
aS'i'
aS'a'
aS'l'
aS'e'
aS'backspace'
p502
aS'space'
p503
aS'c'
aS'o'
aS'm'
aS'e'
aS'd'
aS'i'
aS'e'
aS'n'
aS'return'
p504
asS'trials.thisRepN'
p505
I0
sg42
g43
sg22
Nsg19
g71
sS'trials.thisTrialN'
p506
I37
sg23
Nsg21
Nsg18
Nsa(dp507
g20
F51.149999999999999
sg39
g11
sS'trials.thisIndex'
p508
g35
(g60
S'\x90\x00\x00\x00'
tRp509
sg25
Nsg53
V./greyInner/MariskaHargitay(Liv)8_8_cut.png
p510
sg34
g38
sg24
Nsg52
g35
(g63
S'\x91\x00\x00\x00\x00\x00\x00\x00'
tRp511
sg32
g33
sg26
S''
sg28
(lp512
F0.65042574049221002
asS'trials.thisN'
p513
I38
sg40
g41
sg16
g67
sg17
F2.8149999999999999
sg27
(lp514
S'return'
p515
asS'trials.thisRepN'
p516
I0
sg42
g43
sg22
Nsg19
g216
sS'trials.thisTrialN'
p517
I38
sg23
Nsg21
Nsg18
Nsa(dp518
g20
Nsg39
g11
sS'trials.thisIndex'
p519
g35
(g60
S'u\x00\x00\x00'
tRp520
sg25
Nsg53
V./greyInner/JudithRakers4_3_cut.png
p521
sg34
g38
sg24
Nsg52
g35
(g63
S'v\x00\x00\x00\x00\x00\x00\x00'
tRp522
sg32
g33
sg26
S''
sg28
(lp523
F0.20043934160457866
asS'trials.thisN'
p524
I39
sg40
g41
sg16
g67
sg17
F1.546
sg27
(lp525
S'return'
p526
asS'trials.thisRepN'
p527
I0
sg42
g43
sg22
F5.9429999999999996
sg19
NsS'trials.thisTrialN'
p528
I39
sg23
Nsg21
g273
sg18
Nsa(dp529
g20
F1.079
sg39
g11
sS'trials.thisIndex'
p530
g35
(g60
S'\x85\x00\x00\x00'
tRp531
sg25
Nsg53
V./greyInner/LeonardoDiCaprio4_1_cut.png
p532
sg34
g38
sg24
Nsg52
g35
(g63
S'\x86\x00\x00\x00\x00\x00\x00\x00'
tRp533
sg32
g33
sg26
S'titanic'
p534
sg28
(lp535
F1.1670701021885179
aF1.2836104666985193
aF1.3836389520474768
aF2.3998685439619294
aF2.8496323208637477
aF3.4828821656046784
aF4.6991421033999359
aF7.9809594045273116
asS'trials.thisN'
p536
I40
sg40
g41
sg16
g80
sg17
F6.726
sg27
(lp537
S't'
aS'i'
aS't'
aS'a'
aS'n'
aS'i'
aS'c'
aS'return'
p538
asS'trials.thisRepN'
p539
I0
sg42
g43
sg22
Nsg19
g71
sS'trials.thisTrialN'
p540
I40
sg23
Nsg21
Nsg18
Nsa(dp541
g20
Nsg39
g11
sS'trials.thisIndex'
p542
g35
(g60
S'9\x00\x00\x00'
tRp543
sg25
Nsg53
V./greyInner/ElvisPresley4_10_cut.png
p544
sg34
g38
sg24
F3.8210000000000002
sg52
g35
(g63
S':\x00\x00\x00\x00\x00\x00\x00'
tRp545
sg32
g33
sg26
S''
sg28
(lp546
F0.75022518823425344
asS'trials.thisN'
p547
I41
sg40
g41
sg16
g67
sg17
F1.5629999999999999
sg27
(lp548
S'return'
p549
asS'trials.thisRepN'
p550
I0
sg42
g43
sg22
Nsg19
NsS'trials.thisTrialN'
p551
I41
sg23
g110
sg21
Nsg18
Nsa(dp552
g20
Nsg39
g11
sS'trials.thisIndex'
p553
g35
(g60
S'H\x00\x00\x00'
tRp554
sg25
Nsg53
V./greyInner/GuentherJauch4_1_cut.png
p555
sg34
g38
sg24
F1.8939999999999999
sg52
g35
(g63
S'I\x00\x00\x00\x00\x00\x00\x00'
tRp556
sg32
g33
sg26
S''
sg28
(lp557
F0.85028767636504199
asS'trials.thisN'
p558
I42
sg40
g41
sg16
g67
sg17
F2.8769999999999998
sg27
(lp559
S'return'
p560
asS'trials.thisRepN'
p561
I0
sg42
g43
sg22
Nsg19
NsS'trials.thisTrialN'
p562
I42
sg23
g136
sg21
Nsg18
Nsa(dp563
g20
F3.7869999999999999
sg39
g11
sS'trials.thisIndex'
p564
g35
(g60
S'\xa6\x00\x00\x00'
tRp565
sg25
Nsg53
V./greyInner/RobertSeanLeonard(Wilson)10_1_cut.png
p566
sg34
g38
sg24
Nsg52
g35
(g63
S'\xa7\x00\x00\x00\x00\x00\x00\x00'
tRp567
sg32
g33
sg26
S'comedien'
p568
sg28
(lp569
F33.470687677390742
aF33.870363111214829
aF34.153638682590099
aF34.719981317715792
aF34.920036684510706
aF35.219778904929626
aF35.786368541395859
aF36.252464880899424
aF39.434783626826174
asS'trials.thisN'
p570
I43
sg40
g41
sg16
g80
sg17
F2.4710000000000001
sg27
(lp571
S'c'
aS'o'
aS'm'
aS'e'
aS'd'
aS'i'
aS'e'
aS'n'
aS'return'
p572
asS'trials.thisRepN'
p573
I0
sg42
g43
sg22
Nsg19
g71
sS'trials.thisTrialN'
p574
I43
sg23
Nsg21
Nsg18
Nsa(dp575
g20
Nsg39
g11
sS'trials.thisIndex'
p576
g35
(g60
S'\x07\x00\x00\x00'
tRp577
sg25
Nsg53
V./greyInner/AngelaMerkel4_1_cut.png
p578
sg34
g38
sg24
F10.773
sg52
g35
(g63
S'\x08\x00\x00\x00\x00\x00\x00\x00'
tRp579
sg32
g33
sg26
S''
sg28
(lp580
F1.0833119479357265
asS'trials.thisN'
p581
I44
sg40
g41
sg16
g67
sg17
F6.7069999999999999
sg27
(lp582
S'return'
p583
asS'trials.thisRepN'
p584
I0
sg42
g43
sg22
Nsg19
NsS'trials.thisTrialN'
p585
I44
sg23
g136
sg21
Nsg18
Nsa(dp586
g20
Nsg39
g11
sS'trials.thisIndex'
p587
g35
(g60
S'\x9f\x00\x00\x00'
tRp588
sg25
Nsg53
V./greyInner/NicoleKidman8_2_cut.png
p589
sg34
g38
sg24
F5.6420000000000003
sg52
g35
(g63
S'\xa0\x00\x00\x00\x00\x00\x00\x00'
tRp590
sg32
g33
sg26
S''
sg28
(lp591
F0.66692061825960991
asS'trials.thisN'
p592
I45
sg40
g41
sg16
g67
sg17
F3.0600000000000001
sg27
(lp593
S'return'
p594
asS'trials.thisRepN'
p595
I0
sg42
g43
sg22
Nsg19
NsS'trials.thisTrialN'
p596
I45
sg23
g110
sg21
Nsg18
Nsa(dp597
g20
Nsg39
g11
sS'trials.thisIndex'
p598
g35
(g60
S'`\x00\x00\x00'
tRp599
sg25
Nsg53
V./greyInner/JasonSegel(Marshall)14_1_cut.png
p600
sg34
g38
sg24
Nsg52
g35
(g63
S'a\x00\x00\x00\x00\x00\x00\x00'
tRp601
sg32
g33
sg26
S''
sg28
(lp602
F1.7163183199281775
asS'trials.thisN'
p603
I46
sg40
g41
sg16
g80
sg17
F2.2050000000000001
sg27
(lp604
S'return'
p605
asS'trials.thisRepN'
p606
I0
sg42
g43
sg22
F2.0870000000000002
sg19
NsS'trials.thisTrialN'
p607
I46
sg23
Nsg21
g85
sg18
Nsa(dp608
g20
Nsg39
g11
sS'trials.thisIndex'
p609
g35
(g60
S'\\\x00\x00\x00'
tRp610
sg25
Nsg53
V./greyInner/JanHofer5_1_cut.png
p611
sg34
g38
sg24
Nsg52
g35
(g63
S']\x00\x00\x00\x00\x00\x00\x00'
tRp612
sg32
g33
sg26
S'comedien'
p613
sg28
(lp614
F9.9136088756240497
aF10.313379581393747
aF10.679968383827145
aF11.462991821368632
aF11.646179562916586
aF12.64582157136465
aF13.178856557018662
aF13.561975523129149
aF15.194717571610454
asS'trials.thisN'
p615
I47
sg40
g41
sg16
g80
sg17
F8.9250000000000007
sg27
(lp616
S'c'
aS'o'
aS'm'
aS'e'
aS'd'
aS'i'
aS'e'
aS'n'
aS'return'
p617
asS'trials.thisRepN'
p618
I0
sg42
g43
sg22
F2.9609999999999999
sg19
NsS'trials.thisTrialN'
p619
I47
sg23
Nsg21
g273
sg18
Nsa(dp620
g20
Nsg39
g11
sS'trials.thisIndex'
p621
g35
(g60
S'3\x00\x00\x00'
tRp622
sg25
Nsg53
V./greyInner/DannFlorek(DonaldDonCragen)10_1_cut.png
p623
sg34
g38
sg24
F6.4509999999999996
sg52
g35
(g63
S'4\x00\x00\x00\x00\x00\x00\x00'
tRp624
sg32
g33
sg26
S''
sg28
(lp625
F0.78346483214045293
asS'trials.thisN'
p626
I48
sg40
g41
sg16
g67
sg17
F4.0019999999999998
sg27
(lp627
S'return'
p628
asS'trials.thisRepN'
p629
I0
sg42
g43
sg22
Nsg19
NsS'trials.thisTrialN'
p630
I48
sg23
g136
sg21
Nsg18
Nsa(dp631
g20
Nsg39
g11
sS'trials.thisIndex'
p632
g35
(g60
S'\xb8\x00\x00\x00'
tRp633
sg25
Nsg53
V./greyInner/SigmarGabriel8_2_cut.png
p634
sg34
g38
sg24
F4.0359999999999996
sg52
g35
(g63
S'\xb9\x00\x00\x00\x00\x00\x00\x00'
tRp635
sg32
g33
sg26
S''
sg28
(lp636
F0.91677722917120263
asS'trials.thisN'
p637
I49
sg40
g41
sg16
g67
sg17
F17.919
sg27
(lp638
S'return'
p639
asS'trials.thisRepN'
p640
I0
sg42
g43
sg22
Nsg19
NsS'trials.thisTrialN'
p641
I49
sg23
g110
sg21
Nsg18
Nsa(dp642
g20
Nsg39
g11
sS'trials.thisIndex'
p643
g35
(g60
S'\xdf\x00\x00\x00'
tRp644
sg25
Nsg53
V./greyInner/notfamousface9_1_cut.png
p645
sg34
g38
sg24
F1.661
sg52
g35
(g63
S'\xe0\x00\x00\x00\x00\x00\x00\x00'
tRp646
sg32
g33
sg26
S'laufen'
p647
sg28
(lp648
F3.5492424436833971
aF3.6992399415921682
aF4.8489253196257778
aF5.7317693764525757
aF5.9648789757593477
aF6.0484096963100455
aF6.7314200459877611
asS'trials.thisN'
p649
I50
sg40
g41
sg16
g67
sg17
F6.2930000000000001
sg27
(lp650
S'l'
aS'a'
aS'u'
aS'f'
aS'e'
aS'n'
aS'return'
p651
asS'trials.thisRepN'
p652
I0
sg42
g43
sg22
Nsg19
NsS'trials.thisTrialN'
p653
I50
sg23
g110
sg21
Nsg18
Nsa(dp654
g20
Nsg39
g11
sS'trials.thisIndex'
p655
g35
(g60
S'\xb7\x00\x00\x00'
tRp656
sg25
Nsg53
V./greyInner/SigmarGabriel4_5_cut.png
p657
sg34
g38
sg24
F1.6739999999999999
sg52
g35
(g63
S'\xb8\x00\x00\x00\x00\x00\x00\x00'
tRp658
sg32
g33
sg26
S''
sg28
(lp659
F0.70009546441360726
asS'trials.thisN'
p660
I51
sg40
g41
sg16
g67
sg17
F11.888
sg27
(lp661
S'return'
p662
asS'trials.thisRepN'
p663
I0
sg42
g43
sg22
Nsg19
NsS'trials.thisTrialN'
p664
I51
sg23
g136
sg21
Nsg18
Nsa(dp665
g20
Nsg39
g11
sS'trials.thisIndex'
p666
g35
(g60
S'\xc9\x00\x00\x00'
tRp667
sg25
Nsg53
V./greyInner/Usher11_1_cut.png
p668
sg34
g38
sg24
F2.8780000000000001
sg52
g35
(g63
S'\xca\x00\x00\x00\x00\x00\x00\x00'
tRp669
sg32
g33
sg26
S'boks'
p670
sg28
(lp671
F1.9831650944124704
aF2.0831335937218682
aF2.282840592393768
aF2.4664427829429769
aF4.4822168658938608
asS'trials.thisN'
p672
I52
sg40
g41
sg16
g80
sg17
F2.46
sg27
(lp673
S'b'
aS'o'
aS'k'
aS's'
aS'return'
p674
asS'trials.thisRepN'
p675
I0
sg42
g43
sg22
Nsg19
NsS'trials.thisTrialN'
p676
I52
sg23
g110
sg21
Nsg18
Nsa(dp677
g20
Nsg39
g11
sS'trials.thisIndex'
p678
g35
(g60
S';\x00\x00\x00'
tRp679
sg25
Nsg53
V./greyInner/ElvisPresley6_1_cut.png
p680
sg34
g38
sg24
Nsg52
g35
(g63
S'<\x00\x00\x00\x00\x00\x00\x00'
tRp681
sg32
g33
sg26
S''
sg28
(lp682
F0.71714272699682624
asS'trials.thisN'
p683
I53
sg40
g41
sg16
g80
sg17
F4.71
sg27
(lp684
S'return'
p685
asS'trials.thisRepN'
p686
I0
sg42
g43
sg22
F9.3420000000000005
sg19
NsS'trials.thisTrialN'
p687
I53
sg23
Nsg21
g85
sg18
Nsa(dp688
g20
Nsg39
g11
sS'trials.thisIndex'
p689
g35
(g60
S'\xbb\x00\x00\x00'
tRp690
sg25
Nsg53
V./greyInner/TaylorSwift3_1_cut.png
p691
sg34
g38
sg24
Nsg52
g35
(g63
S'\xbc\x00\x00\x00\x00\x00\x00\x00'
tRp692
sg32
g33
sg26
S''
sg28
(lp693
F0.68382769956406264
asS'trials.thisN'
p694
I54
sg40
g41
sg16
g80
sg17
F2.1280000000000001
sg27
(lp695
S'return'
p696
asS'trials.thisRepN'
p697
I0
sg42
g43
sg22
F2.3780000000000001
sg19
NsS'trials.thisTrialN'
p698
I54
sg23
Nsg21
g85
sg18
Nsa(dp699
g20
Nsg39
g11
sS'trials.thisIndex'
p700
g35
(g60
S'\xb6\x00\x00\x00'
tRp701
sg25
Nsg53
V./greyInner/SigmarGabriel3_3_cut.png
p702
sg34
g38
sg24
F1.355
sg52
g35
(g63
S'\xb7\x00\x00\x00\x00\x00\x00\x00'
tRp703
sg32
g33
sg26
S''
sg28
(lp704
F1.1498509010089037
asS'trials.thisN'
p705
I55
sg40
g41
sg16
g67
sg17
F4.6779999999999999
sg27
(lp706
S'return'
p707
asS'trials.thisRepN'
p708
I0
sg42
g43
sg22
Nsg19
NsS'trials.thisTrialN'
p709
I55
sg23
g136
sg21
Nsg18
Nsa(dp710
g20
F3.4830000000000001
sg39
g11
sS'trials.thisIndex'
p711
g35
(g60
S'\xb9\x00\x00\x00'
tRp712
sg25
Nsg53
V./greyInner/TaylorSwift1_2_cut.png
p713
sg34
g38
sg24
Nsg52
g35
(g63
S'\xba\x00\x00\x00\x00\x00\x00\x00'
tRp714
sg32
g33
sg26
S''
sg28
(lp715
F2.3494029624762334
asS'trials.thisN'
p716
I56
sg40
g41
sg16
g67
sg17
F7.3949999999999996
sg27
(lp717
S'return'
p718
asS'trials.thisRepN'
p719
I0
sg42
g43
sg22
Nsg19
g71
sS'trials.thisTrialN'
p720
I56
sg23
Nsg21
Nsg18
Nsa(dp721
g20
F1.292
sg39
g11
sS'trials.thisIndex'
p722
g35
(g60
S'\x1c\x00\x00\x00'
tRp723
sg25
Nsg53
V./greyInner/Beyonce5_3_cut.png
p724
sg34
g38
sg24
Nsg52
g35
(g63
S'\x1d\x00\x00\x00\x00\x00\x00\x00'
tRp725
sg32
g33
sg26
S''
sg28
(lp726
F16.727098164106792
asS'trials.thisN'
p727
I57
sg40
g41
sg16
g80
sg17
F2.226
sg27
(lp728
S'return'
p729
asS'trials.thisRepN'
p730
I0
sg42
g43
sg22
Nsg19
g71
sS'trials.thisTrialN'
p731
I57
sg23
Nsg21
Nsg18
Nsa(dp732
g20
Nsg39
g11
sS'trials.thisIndex'
p733
g35
(g60
S'\xac\x00\x00\x00'
tRp734
sg25
Nsg53
V./greyInner/SahraWagenknecht5_1_cut.png
p735
sg34
g38
sg24
F8.0090000000000003
sg52
g35
(g63
S'\xad\x00\x00\x00\x00\x00\x00\x00'
tRp736
sg32
g33
sg26
S''
sg28
(lp737
F1.0501056652483385
asS'trials.thisN'
p738
I58
sg40
g41
sg16
g67
sg17
F2.444
sg27
(lp739
S'return'
p740
asS'trials.thisRepN'
p741
I0
sg42
g43
sg22
Nsg19
NsS'trials.thisTrialN'
p742
I58
sg23
g136
sg21
Nsg18
Nsa(dp743
g20
F1.0629999999999999
sg39
g11
sS'trials.thisIndex'
p744
g35
(g60
S'\xc1\x00\x00\x00'
tRp745
sg25
Nsg53
V./greyInner/TomCruise6_1_cut.png
p746
sg34
g38
sg24
Nsg52
g35
(g63
S'\xc2\x00\x00\x00\x00\x00\x00\x00'
tRp747
sg32
g33
sg26
S''
sg28
(lp748
F97.878492021534839
aF98.728299809583405
aF114.77175825176892
asS'trials.thisN'
p749
I59
sg40
g41
sg16
g80
sg17
F3.4780000000000002
sg27
(lp750
S'g'
aS'backspace'
p751
aS'return'
p752
asS'trials.thisRepN'
p753
I0
sg42
g43
sg22
Nsg19
g71
sS'trials.thisTrialN'
p754
I59
sg23
Nsg21
Nsg18
Nsa(dp755
g20
F1.9950000000000001
sg39
g11
sS'trials.thisIndex'
p756
g35
(g60
S'\xd1\x00\x00\x00'
tRp757
sg25
Nsg53
V./greyInner/WillSmith6_1_cut.png
p758
sg34
g38
sg24
Nsg52
g35
(g63
S'\xd2\x00\x00\x00\x00\x00\x00\x00'
tRp759
sg32
g33
sg26
S'comedien'
p760
sg28
(lp761
F1.5500533779522812
aF1.7000351575934474
aF2.1664805067830457
aF2.316464531892052
aF2.5330965756002115
aF2.7826850136279973
aF2.9329224556950066
aF4.4654913466129074
aF5.1487073168864299
asS'trials.thisN'
p762
I60
sg40
g41
sg16
g80
sg17
F3.444
sg27
(lp763
S'c'
aS'o'
aS'm'
aS'e'
aS'd'
aS'i'
aS'e'
aS'n'
aS'return'
p764
asS'trials.thisRepN'
p765
I0
sg42
g43
sg22
Nsg19
g71
sS'trials.thisTrialN'
p766
I60
sg23
Nsg21
Nsg18
Nsa(dp767
g20
Nsg39
g11
sS'trials.thisIndex'
p768
g35
(g60
S'k\x00\x00\x00'
tRp769
sg25
Nsg53
V./greyInner/JoachimLoew15_1_cut.png
p770
sg34
g38
sg24
F2.194
sg52
g35
(g63
S'l\x00\x00\x00\x00\x00\x00\x00'
tRp771
sg32
g33
sg26
S''
sg28
(lp772
F0.75023994415823836
asS'trials.thisN'
p773
I61
sg40
g41
sg16
g67
sg17
F1.7290000000000001
sg27
(lp774
S'return'
p775
asS'trials.thisRepN'
p776
I0
sg42
g43
sg22
Nsg19
NsS'trials.thisTrialN'
p777
I61
sg23
g136
sg21
Nsg18
Nsa(dp778
g20
Nsg39
g11
sS'trials.thisIndex'
p779
g35
(g60
S'\x03\x00\x00\x00'
tRp780
sg25
Nsg53
V./greyInner/AlysonHannigan(Lily)5_4_cut.png
p781
sg34
g38
sg24
Nsg52
g35
(g63
S'\x04\x00\x00\x00\x00\x00\x00\x00'
tRp782
sg32
g33
sg26
S'stirling'
p783
sg28
(lp784
F1.499686276221837
aF1.9996930126217194
aF2.149489701649145
aF3.4655426715671638
aF3.6156056087911566
aF4.2320192648221564
aF4.3485384577888908
aF4.7481596796296799
aF5.1483801203066832
aF5.4150337846513139
aF5.9645543454280414
aF6.0813224644189177
aF7.0143729117171461
asS'trials.thisN'
p785
I62
sg40
g41
sg16
g80
sg17
F7.7809999999999997
sg27
(lp786
S's'
aS'r'
aS'i'
aS'backspace'
p787
aS'backspace'
p788
aS't'
aS'i'
aS'r'
aS'l'
aS'i'
aS'n'
aS'g'
aS'return'
p789
asS'trials.thisRepN'
p790
I0
sg42
g43
sg22
F0.85199999999999998
sg19
NsS'trials.thisTrialN'
p791
I62
sg23
Nsg21
g85
sg18
Nsa(dp792
g20
F6.617
sg39
g11
sS'trials.thisIndex'
p793
g35
(g60
S'B\x00\x00\x00'
tRp794
sg25
Nsg53
V./greyInner/EmmaWatson(HermioneGranger)16_1_cut.png
p795
sg34
g38
sg24
Nsg52
g35
(g63
S'C\x00\x00\x00\x00\x00\x00\x00'
tRp796
sg32
g33
sg26
S''
sg28
(lp797
F36.069533764120933
asS'trials.thisN'
p798
I63
sg40
g41
sg16
g80
sg17
F5.8339999999999996
sg27
(lp799
S'return'
p800
asS'trials.thisRepN'
p801
I0
sg42
g43
sg22
Nsg19
g216
sS'trials.thisTrialN'
p802
I63
sg23
Nsg21
Nsg18
Nsa(dp803
g20
Nsg39
g11
sS'trials.thisIndex'
p804
g35
(g60
S'[\x00\x00\x00'
tRp805
sg25
Nsg53
V./greyInner/JanHofer3_1_cut.png
p806
sg34
g38
sg24
F2.9790000000000001
sg52
g35
(g63
S'\\\x00\x00\x00\x00\x00\x00\x00'
tRp807
sg32
g33
sg26
S''
sg28
(lp808
F0.7335022352017404
asS'trials.thisN'
p809
I64
sg40
g41
sg16
g67
sg17
F1.6459999999999999
sg27
(lp810
S'return'
p811
asS'trials.thisRepN'
p812
I0
sg42
g43
sg22
Nsg19
NsS'trials.thisTrialN'
p813
I64
sg23
g136
sg21
Nsg18
Nsa(dp814
g20
Nsg39
g11
sS'trials.thisIndex'
p815
g35
(g60
S'\x8d\x00\x00\x00'
tRp816
sg25
Nsg53
V./greyInner/MariskaHargitay(Liv)14_1_cut.png
p817
sg34
g38
sg24
Nsg52
g35
(g63
S'\x8e\x00\x00\x00\x00\x00\x00\x00'
tRp818
sg32
g33
sg26
S''
sg28
(lp819
F0.83346271498703572
asS'trials.thisN'
p820
I65
sg40
g41
sg16
g67
sg17
F1.595
sg27
(lp821
S'return'
p822
asS'trials.thisRepN'
p823
I0
sg42
g43
sg22
F1.9119999999999999
sg19
NsS'trials.thisTrialN'
p824
I65
sg23
Nsg21
g273
sg18
Nsa(dp825
g20
F0.82899999999999996
sg39
g11
sS'trials.thisIndex'
p826
g35
(g60
S'\x1d\x00\x00\x00'
tRp827
sg25
Nsg53
V./greyInner/Beyonce8_3_cut.png
p828
sg34
g38
sg24
Nsg52
g35
(g63
S'\x1e\x00\x00\x00\x00\x00\x00\x00'
tRp829
sg32
g33
sg26
S''
sg28
(lp830
F0.78340741234933375
asS'trials.thisN'
p831
I66
sg40
g41
sg16
g80
sg17
F4.4459999999999997
sg27
(lp832
S'return'
p833
asS'trials.thisRepN'
p834
I0
sg42
g43
sg22
Nsg19
g71
sS'trials.thisTrialN'
p835
I66
sg23
Nsg21
Nsg18
Nsa(dp836
g20
Nsg39
g11
sS'trials.thisIndex'
p837
g35
(g60
S't\x00\x00\x00'
tRp838
sg25
Nsg53
V./greyInner/JudithRakers2_1_cut.png
p839
sg34
g38
sg24
F6.9119999999999999
sg52
g35
(g63
S'u\x00\x00\x00\x00\x00\x00\x00'
tRp840
sg32
g33
sg26
S''
sg28
(lp841
F0.30023750622422085
asS'trials.thisN'
p842
I67
sg40
g41
sg16
g67
sg17
F1.599
sg27
(lp843
S'return'
p844
asS'trials.thisRepN'
p845
I0
sg42
g43
sg22
Nsg19
NsS'trials.thisTrialN'
p846
I67
sg23
g110
sg21
Nsg18
Nsa(dp847
g20
F5.5110000000000001
sg39
g11
sS'trials.thisIndex'
p848
g35
(g60
S'z\x00\x00\x00'
tRp849
sg25
Nsg53
V./greyInner/KaleyCuoco(Penny)3_1_cut.png
p850
sg34
g38
sg24
Nsg52
g35
(g63
S'{\x00\x00\x00\x00\x00\x00\x00'
tRp851
sg32
g33
sg26
S''
sg28
(lp852
F9.9795284006631846
asS'trials.thisN'
p853
I68
sg40
g41
sg16
g80
sg17
F2.8780000000000001
sg27
(lp854
S'return'
p855
asS'trials.thisRepN'
p856
I0
sg42
g43
sg22
Nsg19
g71
sS'trials.thisTrialN'
p857
I68
sg23
Nsg21
Nsg18
Nsa(dp858
g20
Nsg39
g11
sS'trials.thisIndex'
p859
g35
(g60
S'\xdc\x00\x00\x00'
tRp860
sg25
Nsg53
V./greyInner/notfamousface6_8_cut.png
p861
sg34
g38
sg24
Nsg52
g35
(g63
S'\xdd\x00\x00\x00\x00\x00\x00\x00'
tRp862
sg32
g33
sg26
S''
sg28
(lp863
F0.76710885252941807
asS'trials.thisN'
p864
I69
sg40
g41
sg16
g67
sg17
F4.5300000000000002
sg27
(lp865
S'return'
p866
asS'trials.thisRepN'
p867
I0
sg42
g43
sg22
F0.71299999999999997
sg19
NsS'trials.thisTrialN'
p868
I69
sg23
Nsg21
g85
sg18
Nsa(dp869
g20
F2.1440000000000001
sg39
g11
sS'trials.thisIndex'
p870
g35
(g60
S'\x14\x00\x00\x00'
tRp871
sg25
Nsg53
V./greyInner/BenedictCumberbatch16_1_cut.png
p872
sg34
g38
sg24
Nsg52
g35
(g63
S'\x15\x00\x00\x00\x00\x00\x00\x00'
tRp873
sg32
g33
sg26
S''
sg28
(lp874
F10.663308624645651
asS'trials.thisN'
p875
I70
sg40
g41
sg16
g80
sg17
F12.94
sg27
(lp876
S'return'
p877
asS'trials.thisRepN'
p878
I0
sg42
g43
sg22
Nsg19
g71
sS'trials.thisTrialN'
p879
I70
sg23
Nsg21
Nsg18
Nsa(dp880
g20
Nsg39
g11
sS'trials.thisIndex'
p881
g35
(g60
S' \x00\x00\x00'
tRp882
sg25
Nsg53
V./greyInner/BritneySpears5_1_cut.png
p883
sg34
g38
sg24
Nsg52
g35
(g63
S'!\x00\x00\x00\x00\x00\x00\x00'
tRp884
sg32
g33
sg26
S''
sg28
(lp885
F1.066033081498972
asS'trials.thisN'
p886
I71
sg40
g41
sg16
g80
sg17
F10.141
sg27
(lp887
S'return'
p888
asS'trials.thisRepN'
p889
I0
sg42
g43
sg22
F3.3279999999999998
sg19
NsS'trials.thisTrialN'
p890
I71
sg23
Nsg21
g85
sg18
Nsa(dp891
g20
Nsg39
g11
sS'trials.thisIndex'
p892
g35
(g60
S'i\x00\x00\x00'
tRp893
sg25
Nsg53
V./greyInner/JoachimLoew1_1_cut.png
p894
sg34
g38
sg24
Nsg52
g35
(g63
S'j\x00\x00\x00\x00\x00\x00\x00'
tRp895
sg32
g33
sg26
S''
sg28
(lp896
F2.1329579340672353
asS'trials.thisN'
p897
I72
sg40
g41
sg16
g67
sg17
F2.137
sg27
(lp898
S'return'
p899
asS'trials.thisRepN'
p900
I0
sg42
g43
sg22
F50.750999999999998
sg19
NsS'trials.thisTrialN'
p901
I72
sg23
Nsg21
g85
sg18
Nsa(dp902
g20
F1.5449999999999999
sg39
g11
sS'trials.thisIndex'
p903
g35
(g60
S'R\x00\x00\x00'
tRp904
sg25
Nsg53
V./greyInner/HughLaurie(DrHouse)5_3_cut.png
p905
sg34
g38
sg24
Nsg52
g35
(g63
S'S\x00\x00\x00\x00\x00\x00\x00'
tRp906
sg32
g33
sg26
S'doctor haus'
p907
sg28
(lp908
F2.0828288518096088
aF2.2161194357340719
aF3.0324842047448328
aF4.0818398841074668
aF4.2321273680045124
aF4.365225483352333
aF5.7482283267545426
aF6.581092785250803
aF6.7474494705838879
aF6.964329157193788
aF7.3474218192641274
aF8.7799779431006755
asS'trials.thisN'
p909
I73
sg40
g41
sg16
g80
sg17
F2.7429999999999999
sg27
(lp910
S'd'
aS'o'
aS'c'
aS't'
aS'o'
aS'r'
aS'space'
p911
aS'h'
aS'a'
aS'u'
aS's'
aS'return'
p912
asS'trials.thisRepN'
p913
I0
sg42
g43
sg22
Nsg19
g71
sS'trials.thisTrialN'
p914
I73
sg23
Nsg21
Nsg18
Nsa(dp915
g20
Nsg39
g11
sS'trials.thisIndex'
p916
g35
(g60
S'\xbd\x00\x00\x00'
tRp917
sg25
Nsg53
V./greyInner/TaylorSwift8_1_cut.png
p918
sg34
g38
sg24
Nsg52
g35
(g63
S'\xbe\x00\x00\x00\x00\x00\x00\x00'
tRp919
sg32
g33
sg26
S''
sg28
(lp920
F0.68397076787186961
asS'trials.thisN'
p921
I74
sg40
g41
sg16
g67
sg17
F4.1619999999999999
sg27
(lp922
S'return'
p923
asS'trials.thisRepN'
p924
I0
sg42
g43
sg22
F12.308
sg19
NsS'trials.thisTrialN'
p925
I74
sg23
Nsg21
g85
sg18
Nsa(dp926
g20
Nsg39
g11
sS'trials.thisIndex'
p927
g35
(g60
S'\xae\x00\x00\x00'
tRp928
sg25
Nsg53
V./greyInner/SahraWagenknecht9_1_cut.png
p929
sg34
g38
sg24
F1.8260000000000001
sg52
g35
(g63
S'\xaf\x00\x00\x00\x00\x00\x00\x00'
tRp930
sg32
g33
sg26
S''
sg28
(lp931
F0.63322225758020068
asS'trials.thisN'
p932
I75
sg40
g41
sg16
g67
sg17
F2.476
sg27
(lp933
S'return'
p934
asS'trials.thisRepN'
p935
I0
sg42
g43
sg22
Nsg19
NsS'trials.thisTrialN'
p936
I75
sg23
g110
sg21
Nsg18
Nsa(dp937
g20
Nsg39
g11
sS'trials.thisIndex'
p938
g35
(g60
S'\x92\x00\x00\x00'
tRp939
sg25
Nsg53
V./greyInner/MilaKunis10_1_cut.png
p940
sg34
g38
sg24
F10.976000000000001
sg52
g35
(g63
S'\x93\x00\x00\x00\x00\x00\x00\x00'
tRp941
sg32
g33
sg26
S''
sg28
(lp942
F0.21748339637815661
asS'trials.thisN'
p943
I76
sg40
g41
sg16
g67
sg17
F1.9470000000000001
sg27
(lp944
S'return'
p945
asS'trials.thisRepN'
p946
I0
sg42
g43
sg22
Nsg19
NsS'trials.thisTrialN'
p947
I76
sg23
g110
sg21
Nsg18
Nsa(dp948
g20
Nsg39
g11
sS'trials.thisIndex'
p949
g35
(g60
S'\xc7\x00\x00\x00'
tRp950
sg25
Nsg53
V./greyInner/UrsulavonderLeyen8_2_cut.png
p951
sg34
g38
sg24
F1.01
sg52
g35
(g63
S'\xc8\x00\x00\x00\x00\x00\x00\x00'
tRp952
sg32
g33
sg26
S''
sg28
(lp953
F0.25025405852102267
asS'trials.thisN'
p954
I77
sg40
g41
sg16
g67
sg17
F2.343
sg27
(lp955
S'return'
p956
asS'trials.thisRepN'
p957
I0
sg42
g43
sg22
Nsg19
NsS'trials.thisTrialN'
p958
I77
sg23
g136
sg21
Nsg18
Nsa(dp959
g20
Nsg39
g11
sS'trials.thisIndex'
p960
g35
(g60
S'\x0e\x00\x00\x00'
tRp961
sg25
Nsg53
V./greyInner/BarackObama5_2_cut.png
p962
sg34
g38
sg24
F1.7110000000000001
sg52
g35
(g63
S'\x0f\x00\x00\x00\x00\x00\x00\x00'
tRp963
sg32
g33
sg26
S'obama'
p964
sg28
(lp965
F1.5168980994367303
aF2.1497931604371843
aF2.6163620102961431
aF2.766455742492326
aF2.8826442102890724
aF3.9325930136474199
asS'trials.thisN'
p966
I78
sg40
g41
sg16
g80
sg17
F2.911
sg27
(lp967
S'o'
aS'b'
aS'a'
aS'm'
aS'a'
aS'return'
p968
asS'trials.thisRepN'
p969
I0
sg42
g43
sg22
Nsg19
NsS'trials.thisTrialN'
p970
I78
sg23
g136
sg21
Nsg18
Nsa(dp971
g20
F1.0089999999999999
sg39
g11
sS'trials.thisIndex'
p972
g35
(g60
S'*\x00\x00\x00'
tRp973
sg25
Nsg53
V./greyInner/CobieSmulders(Robin)3_4_cut.png
p974
sg34
g38
sg24
Nsg52
g35
(g63
S'+\x00\x00\x00\x00\x00\x00\x00'
tRp975
sg32
g33
sg26
S'brazil'
p976
sg28
(lp977
F10.812732886977756
aF11.179464436940179
aF12.212352504915543
aF12.578874584909499
aF12.662366490965724
aF13.495024045741957
aF13.844920048553831
asS'trials.thisN'
p978
I79
sg40
g41
sg16
g80
sg17
F3.2250000000000001
sg27
(lp979
S'b'
aS'r'
aS'a'
aS'z'
aS'i'
aS'l'
aS'return'
p980
asS'trials.thisRepN'
p981
I0
sg42
g43
sg22
Nsg19
g71
sS'trials.thisTrialN'
p982
I79
sg23
Nsg21
Nsg18
Nsa(dp983
g20
Nsg39
g11
sS'trials.thisIndex'
p984
g35
(g60
S'\xde\x00\x00\x00'
tRp985
sg25
Nsg53
V./greyInner/notfamousface8_9_cut.png
p986
sg34
g38
sg24
F1.9910000000000001
sg52
g35
(g63
S'\xdf\x00\x00\x00\x00\x00\x00\x00'
tRp987
sg32
g33
sg26
S''
sg28
(lp988
F0.58369014868731028
asS'trials.thisN'
p989
I80
sg40
g41
sg16
g67
sg17
F2.294
sg27
(lp990
S'return'
p991
asS'trials.thisRepN'
p992
I0
sg42
g43
sg22
Nsg19
NsS'trials.thisTrialN'
p993
I80
sg23
g110
sg21
Nsg18
Nsa(dp994
g20
F1.278
sg39
g11
sS'trials.thisIndex'
p995
g35
(g60
S'\xcb\x00\x00\x00'
tRp996
sg25
Nsg53
V./greyInner/Usher4_1_cut.png
p997
sg34
g38
sg24
Nsg52
g35
(g63
S'\xcc\x00\x00\x00\x00\x00\x00\x00'
tRp998
sg32
g33
sg26
S''
sg28
(lp999
F0.61691952760520508
asS'trials.thisN'
p1000
I81
sg40
g41
sg16
g67
sg17
F10.99
sg27
(lp1001
S'return'
p1002
asS'trials.thisRepN'
p1003
I0
sg42
g43
sg22
Nsg19
g71
sS'trials.thisTrialN'
p1004
I81
sg23
Nsg21
Nsg18
Nsa(dp1005
g20
F1.512
sg39
g11
sS'trials.thisIndex'
p1006
g35
(g60
S'E\x00\x00\x00'
tRp1007
sg25
Nsg53
V./greyInner/EmmaWatson(HermioneGranger)9_1_cut.png
p1008
sg34
g38
sg24
Nsg52
g35
(g63
S'F\x00\x00\x00\x00\x00\x00\x00'
tRp1009
sg32
g33
sg26
S'olsen'
p1010
sg28
(lp1011
F0.71716678556913394
aF0.90053352289396571
aF1.3836306117427739
aF1.5499802398935572
aF1.8834506536240951
aF2.4824763776905456
asS'trials.thisN'
p1012
I82
sg40
g41
sg16
g80
sg17
F4.8780000000000001
sg27
(lp1013
S'o'
aS'l'
aS's'
aS'e'
aS'n'
aS'return'
p1014
asS'trials.thisRepN'
p1015
I0
sg42
g43
sg22
Nsg19
g71
sS'trials.thisTrialN'
p1016
I82
sg23
Nsg21
Nsg18
Nsa(dp1017
g20
Nsg39
g11
sS'trials.thisIndex'
p1018
g35
(g60
S'G\x00\x00\x00'
tRp1019
sg25
Nsg53
V./greyInner/GuentherJauch3_1_cut.png
p1020
sg34
g38
sg24
F8.25
sg52
g35
(g63
S'H\x00\x00\x00\x00\x00\x00\x00'
tRp1021
sg32
g33
sg26
S''
sg28
(lp1022
F0.61690541324242076
asS'trials.thisN'
p1023
I83
sg40
g41
sg16
g67
sg17
F2.851
sg27
(lp1024
S'return'
p1025
asS'trials.thisRepN'
p1026
I0
sg42
g43
sg22
Nsg19
NsS'trials.thisTrialN'
p1027
I83
sg23
g136
sg21
Nsg18
Nsa(dp1028
g20
Nsg39
g11
sS'trials.thisIndex'
p1029
g35
(g60
S'\x02\x00\x00\x00'
tRp1030
sg25
Nsg53
V./greyInner/AlysonHannigan(Lily)14_2_cut.png
p1031
sg34
g38
sg24
Nsg52
g35
(g63
S'\x03\x00\x00\x00\x00\x00\x00\x00'
tRp1032
sg32
g33
sg26
S'stirling'
p1033
sg28
(lp1034
F1.4999538075408054
aF1.8331768991502031
aF1.999794379404193
aF2.5994013585714129
aF3.7156209421191306
aF3.9822351504062681
aF4.3322212926686916
aF4.4988262624647177
aF4.8154431653110805
asS'trials.thisN'
p1035
I84
sg40
g41
sg16
g80
sg17
F7.3769999999999998
sg27
(lp1036
S's'
aS't'
aS'i'
aS'r'
aS'l'
aS'i'
aS'n'
aS'g'
aS'return'
p1037
asS'trials.thisRepN'
p1038
I0
sg42
g43
sg22
F1.778
sg19
NsS'trials.thisTrialN'
p1039
I84
sg23
Nsg21
g85
sg18
Nsa(dp1040
g20
F0.60399999999999998
sg39
g11
sS'trials.thisIndex'
p1041
g35
(g60
S'\x82\x00\x00\x00'
tRp1042
sg25
Nsg53
V./greyInner/LeonardoDiCaprio1_1_cut.png
p1043
sg34
g38
sg24
Nsg52
g35
(g63
S'\x83\x00\x00\x00\x00\x00\x00\x00'
tRp1044
sg32
g33
sg26
S'oskar'
p1045
sg28
(lp1046
F1.2332581208902411
aF1.5999999358427885
aF1.7330813705812034
aF1.8165735974162089
aF2.7994811047174153
aF2.999327963887481
asS'trials.thisN'
p1047
I85
sg40
g41
sg16
g80
sg17
F113.47499999999999
sg27
(lp1048
S'o'
aS's'
aS'k'
aS'a'
aS'r'
aS'return'
p1049
asS'trials.thisRepN'
p1050
I0
sg42
g43
sg22
Nsg19
g71
sS'trials.thisTrialN'
p1051
I85
sg23
Nsg21
Nsg18
Nsa(dp1052
g20
Nsg39
g11
sS'trials.thisIndex'
p1053
g35
(g60
S'5\x00\x00\x00'
tRp1054
sg25
Nsg53
V./greyInner/DannFlorek(DonaldDonCragen)5_1_cut.png
p1055
sg34
g38
sg24
F0.71199999999999997
sg52
g35
(g63
S'6\x00\x00\x00\x00\x00\x00\x00'
tRp1056
sg32
g33
sg26
S''
sg28
(lp1057
F0.60005094001644466
asS'trials.thisN'
p1058
I86
sg40
g41
sg16
g67
sg17
F1.8109999999999999
sg27
(lp1059
S'return'
p1060
asS'trials.thisRepN'
p1061
I0
sg42
g43
sg22
Nsg19
NsS'trials.thisTrialN'
p1062
I86
sg23
g136
sg21
Nsg18
Nsa(dp1063
g20
F1.3799999999999999
sg39
g11
sS'trials.thisIndex'
p1064
g35
(g60
S'\x97\x00\x00\x00'
tRp1065
sg25
Nsg53
V./greyInner/NeilPatrickHarris(Barney)11_2_cut.png
p1066
sg34
g38
sg24
Nsg52
g35
(g63
S'\x98\x00\x00\x00\x00\x00\x00\x00'
tRp1067
sg32
g33
sg26
S''
sg28
(lp1068
F0.20058593850262696
asS'trials.thisN'
p1069
I87
sg40
g41
sg16
g80
sg17
F2.7959999999999998
sg27
(lp1070
S'return'
p1071
asS'trials.thisRepN'
p1072
I0
sg42
g43
sg22
Nsg19
g71
sS'trials.thisTrialN'
p1073
I87
sg23
Nsg21
Nsg18
Nsa(dp1074
g20
Nsg39
g11
sS'trials.thisIndex'
p1075
g35
(g60
S'\xd6\x00\x00\x00'
tRp1076
sg25
Nsg53
V./greyInner/notfamousface13_1_cut.png
p1077
sg34
g38
sg24
Nsg52
g35
(g63
S'\xd7\x00\x00\x00\x00\x00\x00\x00'
tRp1078
sg32
g33
sg26
S''
sg28
(lp1079
F0.25021588558593066
asS'trials.thisN'
p1080
I88
sg40
g41
sg16
g67
sg17
F1.796
sg27
(lp1081
S'return'
p1082
asS'trials.thisRepN'
p1083
I0
sg42
g43
sg22
F1.1459999999999999
sg19
NsS'trials.thisTrialN'
p1084
I88
sg23
Nsg21
g273
sg18
Nsa(dp1085
g20
Nsg39
g11
sS'trials.thisIndex'
p1086
g35
(g60
S'\xd7\x00\x00\x00'
tRp1087
sg25
Nsg53
V./greyInner/notfamousface14_6_cut.png
p1088
sg34
g38
sg24
Nsg52
g35
(g63
S'\xd8\x00\x00\x00\x00\x00\x00\x00'
tRp1089
sg32
g33
sg26
S''
sg28
(lp1090
F4.83197364976877
asS'trials.thisN'
p1091
I89
sg40
g41
sg16
g80
sg17
F6.04
sg27
(lp1092
S'return'
p1093
asS'trials.thisRepN'
p1094
I0
sg42
g43
sg22
F3.0579999999999998
sg19
NsS'trials.thisTrialN'
p1095
I89
sg23
Nsg21
g85
sg18
Nsa(dp1096
g20
F0.91600000000000004
sg39
g11
sS'trials.thisIndex'
p1097
g35
(g60
S'\x84\x00\x00\x00'
tRp1098
sg25
Nsg53
V./greyInner/LeonardoDiCaprio3_1_cut.png
p1099
sg34
g38
sg24
Nsg52
g35
(g63
S'\x85\x00\x00\x00\x00\x00\x00\x00'
tRp1100
sg32
g33
sg26
S'oskar'
p1101
sg28
(lp1102
F1.0666688693636388
aF1.3835587568082701
aF1.533724664719557
aF1.6002661840411747
aF1.8833845727458538
aF3.5826822549115604
asS'trials.thisN'
p1103
I90
sg40
g41
sg16
g80
sg17
F4.3140000000000001
sg27
(lp1104
S'o'
aS's'
aS'k'
aS'a'
aS'r'
aS'return'
p1105
asS'trials.thisRepN'
p1106
I0
sg42
g43
sg22
Nsg19
g71
sS'trials.thisTrialN'
p1107
I90
sg23
Nsg21
Nsg18
Nsa(dp1108
g20
Nsg39
g11
sS'trials.thisIndex'
p1109
g35
(g60
S'F\x00\x00\x00'
tRp1110
sg25
Nsg53
V./greyInner/GuentherJauch2_1_cut.png
p1111
sg34
g38
sg24
F0.879
sg52
g35
(g63
S'G\x00\x00\x00\x00\x00\x00\x00'
tRp1112
sg32
g33
sg26
S''
sg28
(lp1113
F0.66690169218418305
asS'trials.thisN'
p1114
I91
sg40
g41
sg16
g67
sg17
F1.5449999999999999
sg27
(lp1115
S'return'
p1116
asS'trials.thisRepN'
p1117
I0
sg42
g43
sg22
Nsg19
NsS'trials.thisTrialN'
p1118
I91
sg23
g136
sg21
Nsg18
Nsa(dp1119
g20
Nsg39
g11
sS'trials.thisIndex'
p1120
g35
(g60
S'q\x00\x00\x00'
tRp1121
sg25
Nsg53
V./greyInner/JoshRadnor(Ted)7_1_cut.png
p1122
sg34
g38
sg24
Nsg52
g35
(g63
S'r\x00\x00\x00\x00\x00\x00\x00'
tRp1123
sg32
g33
sg26
S'osborn'
p1124
sg28
(lp1125
F1.0666053547320189
aF1.2331593203562079
aF1.7662668025077437
aF1.8827090080430935
aF2.6490714032752294
aF2.7492249932001869
aF3.5656446157554456
asS'trials.thisN'
p1126
I92
sg40
g41
sg16
g80
sg17
F4.3760000000000003
sg27
(lp1127
S'o'
aS's'
aS'b'
aS'o'
aS'r'
aS'n'
aS'return'
p1128
asS'trials.thisRepN'
p1129
I0
sg42
g43
sg22
F4.3419999999999996
sg19
NsS'trials.thisTrialN'
p1130
I92
sg23
Nsg21
g273
sg18
Nsa(dp1131
g20
Nsg39
g11
sS'trials.thisIndex'
p1132
g35
(g60
S'\x1a\x00\x00\x00'
tRp1133
sg25
Nsg53
V./greyInner/Beyonce11_2_cut.png
p1134
sg34
g38
sg24
Nsg52
g35
(g63
S'\x1b\x00\x00\x00\x00\x00\x00\x00'
tRp1135
sg32
g33
sg26
S''
sg28
(lp1136
F0.69977724970158306
asS'trials.thisN'
p1137
I93
sg40
g41
sg16
g67
sg17
F1.5780000000000001
sg27
(lp1138
S'return'
p1139
asS'trials.thisRepN'
p1140
I0
sg42
g43
sg22
F6.774
sg19
NsS'trials.thisTrialN'
p1141
I93
sg23
Nsg21
g85
sg18
Nsa(dp1142
g20
Nsg39
g11
sS'trials.thisIndex'
p1143
g35
(g60
S'\x9d\x00\x00\x00'
tRp1144
sg25
Nsg53
V./greyInner/NicoleKidman5_1_cut.png
p1145
sg34
g38
sg24
F0.74199999999999999
sg52
g35
(g63
S'\x9e\x00\x00\x00\x00\x00\x00\x00'
tRp1146
sg32
g33
sg26
S''
sg28
(lp1147
F0.65009244907378161
asS'trials.thisN'
p1148
I94
sg40
g41
sg16
g67
sg17
F1.708
sg27
(lp1149
S'return'
p1150
asS'trials.thisRepN'
p1151
I0
sg42
g43
sg22
Nsg19
NsS'trials.thisTrialN'
p1152
I94
sg23
g110
sg21
Nsg18
Nsa(dp1153
g20
F0.89000000000000001
sg39
g11
sS'trials.thisIndex'
p1154
g35
(g60
S'\x98\x00\x00\x00'
tRp1155
sg25
Nsg53
V./greyInner/NeilPatrickHarris(Barney)13_4_cut.png
p1156
sg34
g38
sg24
Nsg52
g35
(g63
S'\x99\x00\x00\x00\x00\x00\x00\x00'
tRp1157
sg32
g33
sg26
S'comedien'
p1158
sg28
(lp1159
F1.3165357452653552
aF1.4333545476474683
aF1.7663104287184979
aF1.9830707848104794
aF2.1996550321564428
aF2.4828783162338368
aF2.5660526491374185
aF3.0326715408264135
aF3.3159554525063868
asS'trials.thisN'
p1160
I95
sg40
g41
sg16
g80
sg17
F2.556
sg27
(lp1161
S'c'
aS'o'
aS'm'
aS'e'
aS'd'
aS'i'
aS'e'
aS'n'
aS'return'
p1162
asS'trials.thisRepN'
p1163
I0
sg42
g43
sg22
Nsg19
g216
sS'trials.thisTrialN'
p1164
I95
sg23
Nsg21
Nsg18
Nsa(dp1165
g20
Nsg39
g11
sS'trials.thisIndex'
p1166
g35
(g60
S'\x81\x00\x00\x00'
tRp1167
sg25
Nsg53
V./greyInner/KatjaBurkard7_1_cut.png
p1168
sg34
g38
sg24
F6.9420000000000002
sg52
g35
(g63
S'\x82\x00\x00\x00\x00\x00\x00\x00'
tRp1169
sg32
g33
sg26
S''
sg28
(lp1170
F0.63346188095783873
asS'trials.thisN'
p1171
I96
sg40
g41
sg16
g67
sg17
F1.843
sg27
(lp1172
S'return'
p1173
asS'trials.thisRepN'
p1174
I0
sg42
g43
sg22
Nsg19
NsS'trials.thisTrialN'
p1175
I96
sg23
g136
sg21
Nsg18
Nsa(dp1176
g20
F4.6120000000000001
sg39
g11
sS'trials.thisIndex'
p1177
g35
(g60
S'\x93\x00\x00\x00'
tRp1178
sg25
Nsg53
V./greyInner/MilaKunis4_1_cut.png
p1179
sg34
g38
sg24
Nsg52
g35
(g63
S'\x94\x00\x00\x00\x00\x00\x00\x00'
tRp1180
sg32
g33
sg26
S'serial'
p1181
sg28
(lp1182
F5.0648991208036023
aF5.231417800519921
aF5.8146081724717078
aF5.9147251933663938
aF6.447667794105655
aF6.5310644282144494
aF7.3807865677463269
asS'trials.thisN'
p1183
I97
sg40
g41
sg16
g80
sg17
F1.8140000000000001
sg27
(lp1184
S's'
aS'e'
aS'r'
aS'i'
aS'a'
aS'l'
aS'return'
p1185
asS'trials.thisRepN'
p1186
I0
sg42
g43
sg22
Nsg19
g71
sS'trials.thisTrialN'
p1187
I97
sg23
Nsg21
Nsg18
Nsa(dp1188
g20
Nsg39
g11
sS'trials.thisIndex'
p1189
g35
(g60
S'M\x00\x00\x00'
tRp1190
sg25
Nsg53
V./greyInner/GeorgeClooney16_1_cut.png
p1191
sg34
g38
sg24
Nsg52
g35
(g63
S'N\x00\x00\x00\x00\x00\x00\x00'
tRp1192
sg32
g33
sg26
S'brazil'
p1193
sg28
(lp1194
F0.85020523565981421
aF1.2666292849917227
aF1.5998113166388066
aF2.1663772153133323
aF2.5994305496387824
aF2.8158701247721183
aF3.4156785543818842
asS'trials.thisN'
p1195
I98
sg40
g41
sg16
g67
sg17
F2.1419999999999999
sg27
(lp1196
S'b'
aS'r'
aS'a'
aS'z'
aS'i'
aS'l'
aS'return'
p1197
asS'trials.thisRepN'
p1198
I0
sg42
g43
sg22
F4.6749999999999998
sg19
NsS'trials.thisTrialN'
p1199
I98
sg23
Nsg21
g85
sg18
Nsa(dp1200
g20
Nsg39
g11
sS'trials.thisIndex'
p1201
g35
(g60
S'\x9c\x00\x00\x00'
tRp1202
sg25
Nsg53
V./greyInner/NicoleKidman3_1_cut.png
p1203
sg34
g38
sg24
F3.73
sg52
g35
(g63
S'\x9d\x00\x00\x00\x00\x00\x00\x00'
tRp1204
sg32
g33
sg26
S''
sg28
(lp1205
F0.65004112411952519
asS'trials.thisN'
p1206
I99
sg40
g41
sg16
g67
sg17
F2.8130000000000002
sg27
(lp1207
S'return'
p1208
asS'trials.thisRepN'
p1209
I0
sg42
g43
sg22
Nsg19
NsS'trials.thisTrialN'
p1210
I99
sg23
g110
sg21
Nsg18
Nsa(dp1211
g20
F1.665
sg39
g11
sS'trials.thisIndex'
p1212
g35
(g60
S':\x00\x00\x00'
tRp1213
sg25
Nsg53
V./greyInner/ElvisPresley5_2_cut.png
p1214
sg34
g38
sg24
Nsg52
g35
(g63
S';\x00\x00\x00\x00\x00\x00\x00'
tRp1215
sg32
g33
sg26
S''
sg28
(lp1216
F0.63368963543871359
asS'trials.thisN'
p1217
I100
sg40
g41
sg16
g80
sg17
F2.1659999999999999
sg27
(lp1218
S'return'
p1219
asS'trials.thisRepN'
p1220
I0
sg42
g43
sg22
Nsg19
g71
sS'trials.thisTrialN'
p1221
I100
sg23
Nsg21
Nsg18
Nsa(dp1222
g20
F1.276
sg39
g11
sS'trials.thisIndex'
p1223
g35
(g60
S'\x83\x00\x00\x00'
tRp1224
sg25
Nsg53
V./greyInner/LeonardoDiCaprio2_1_cut.png
p1225
sg34
g38
sg24
Nsg52
g35
(g63
S'\x84\x00\x00\x00\x00\x00\x00\x00'
tRp1226
sg32
g33
sg26
S'leonardo di kaprio'
p1227
sg28
(lp1228
F1.1998670683697128
aF1.8160734999000852
aF1.9830358196850284
aF3.2489064577057434
aF3.6988816292596312
aF4.0154632461999427
aF4.2653253103871975
aF4.3987140532844933
aF4.9151245656612446
aF6.081196718281717
aF6.1810962496856519
aF6.4144223761395551
aF7.5974253478543687
aF8.2471100843267777
aF8.6635767975276394
aF8.9800965037429705
aF9.1134464321457926
aF10.146212282574197
aF10.479529042224385
aF10.612790435081479
aF12.09549649193832
asS'trials.thisN'
p1229
I101
sg40
g41
sg16
g80
sg17
F61.770000000000003
sg27
(lp1230
S'l'
aS'e'
aS'o'
aS'n'
aS'a'
aS'r'
aS'd'
aS'o'
aS'space'
p1231
aS'd'
aS'i'
aS'space'
p1232
aS'k'
aS'a'
aS'p'
aS'r'
aS'o'
aS'backspace'
p1233
aS'i'
aS'o'
aS'return'
p1234
asS'trials.thisRepN'
p1235
I0
sg42
g43
sg22
Nsg19
g216
sS'trials.thisTrialN'
p1236
I101
sg23
Nsg21
Nsg18
Nsa(dp1237
g20
Nsg39
g11
sS'trials.thisIndex'
p1238
g35
(g60
S'\xaf\x00\x00\x00'
tRp1239
sg25
Nsg53
V./greyInner/Shakira1_1_cut.png
p1240
sg34
g38
sg24
Nsg52
g35
(g63
S'\xb0\x00\x00\x00\x00\x00\x00\x00'
tRp1241
sg32
g33
sg26
S''
sg28
(lp1242
F0.63343621847889153
asS'trials.thisN'
p1243
I102
sg40
g41
sg16
g67
sg17
F7.024
sg27
(lp1244
S'return'
p1245
asS'trials.thisRepN'
p1246
I0
sg42
g43
sg22
F2.492
sg19
NsS'trials.thisTrialN'
p1247
I102
sg23
Nsg21
g273
sg18
Nsa(dp1248
g20
Nsg39
g11
sS'trials.thisIndex'
p1249
g35
(g60
S'S\x00\x00\x00'
tRp1250
sg25
Nsg53
V./greyInner/HughLaurie(DrHouse)8_1_cut.png
p1251
sg34
g38
sg24
F3.1400000000000001
sg52
g35
(g63
S'T\x00\x00\x00\x00\x00\x00\x00'
tRp1252
sg32
g33
sg26
S''
sg28
(lp1253
F0.60022319939162116
asS'trials.thisN'
p1254
I103
sg40
g41
sg16
g67
sg17
F1.591
sg27
(lp1255
S'return'
p1256
asS'trials.thisRepN'
p1257
I0
sg42
g43
sg22
Nsg19
NsS'trials.thisTrialN'
p1258
I103
sg23
g110
sg21
Nsg18
Nsa(dp1259
g20
Nsg39
g11
sS'trials.thisIndex'
p1260
g35
(g60
S'\x8f\x00\x00\x00'
tRp1261
sg25
Nsg53
V./greyInner/MariskaHargitay(Liv)6_5_cut.png
p1262
sg34
g38
sg24
Nsg52
g35
(g63
S'\x90\x00\x00\x00\x00\x00\x00\x00'
tRp1263
sg32
g33
sg26
S''
sg28
(lp1264
F0.53374551548222371
asS'trials.thisN'
p1265
I104
sg40
g41
sg16
g67
sg17
F10.526
sg27
(lp1266
S'return'
p1267
asS'trials.thisRepN'
p1268
I0
sg42
g43
sg22
F1.641
sg19
NsS'trials.thisTrialN'
p1269
I104
sg23
Nsg21
g85
sg18
Nsa(dp1270
g20
Nsg39
g11
sS'trials.thisIndex'
p1271
g35
(g60
S'\xb1\x00\x00\x00'
tRp1272
sg25
Nsg53
V./greyInner/Shakira3_1_cut.png
p1273
sg34
g38
sg24
Nsg52
g35
(g63
S'\xb2\x00\x00\x00\x00\x00\x00\x00'
tRp1274
sg32
g33
sg26
S''
sg28
(lp1275
F0.66684780098330521
asS'trials.thisN'
p1276
I105
sg40
g41
sg16
g67
sg17
F1.5960000000000001
sg27
(lp1277
S'return'
p1278
asS'trials.thisRepN'
p1279
I0
sg42
g43
sg22
F0.76400000000000001
sg19
NsS'trials.thisTrialN'
p1280
I105
sg23
Nsg21
g85
sg18
Nsa(dp1281
g20
F2.8610000000000002
sg39
g11
sS'trials.thisIndex'
p1282
g35
(g60
S'y\x00\x00\x00'
tRp1283
sg25
Nsg53
V./greyInner/KaleyCuoco(Penny)14_2_cut.png
p1284
sg34
g38
sg24
Nsg52
g35
(g63
S'z\x00\x00\x00\x00\x00\x00\x00'
tRp1285
sg32
g33
sg26
S''
sg28
(lp1286
F2.7330101572079002
asS'trials.thisN'
p1287
I106
sg40
g41
sg16
g80
sg17
F2.3940000000000001
sg27
(lp1288
S'return'
p1289
asS'trials.thisRepN'
p1290
I0
sg42
g43
sg22
Nsg19
g71
sS'trials.thisTrialN'
p1291
I106
sg23
Nsg21
Nsg18
Nsa(dp1292
g20
Nsg39
g11
sS'trials.thisIndex'
p1293
g35
(g60
S'\xc3\x00\x00\x00'
tRp1294
sg25
Nsg53
V./greyInner/UrsulavonderLeyen1_1_cut.png
p1295
sg34
g38
sg24
F1.0980000000000001
sg52
g35
(g63
S'\xc4\x00\x00\x00\x00\x00\x00\x00'
tRp1296
sg32
g33
sg26
S''
sg28
(lp1297
F0.63354207619704539
asS'trials.thisN'
p1298
I107
sg40
g41
sg16
g67
sg17
F1.946
sg27
(lp1299
S'return'
p1300
asS'trials.thisRepN'
p1301
I0
sg42
g43
sg22
Nsg19
NsS'trials.thisTrialN'
p1302
I107
sg23
g136
sg21
Nsg18
Nsa(dp1303
g20
Nsg39
g11
sS'trials.thisIndex'
p1304
g35
(g60
S'7\x00\x00\x00'
tRp1305
sg25
Nsg53
V./greyInner/ElvisPresley1_1_cut.png
p1306
sg34
g38
sg24
Nsg52
g35
(g63
S'8\x00\x00\x00\x00\x00\x00\x00'
tRp1307
sg32
g33
sg26
S''
sg28
(lp1308
F0.85000988005413092
asS'trials.thisN'
p1309
I108
sg40
g41
sg16
g67
sg17
F3.6230000000000002
sg27
(lp1310
S'return'
p1311
asS'trials.thisRepN'
p1312
I0
sg42
g43
sg22
F1.8580000000000001
sg19
NsS'trials.thisTrialN'
p1313
I108
sg23
Nsg21
g85
sg18
Nsa(dp1314
g20
Nsg39
g11
sS'trials.thisIndex'
p1315
g35
(g60
S'\x04\x00\x00\x00'
tRp1316
sg25
Nsg53
V./greyInner/AlysonHannigan(Lily)8_3_cut.png
p1317
sg34
g38
sg24
Nsg52
g35
(g63
S'\x05\x00\x00\x00\x00\x00\x00\x00'
tRp1318
sg32
g33
sg26
S'stirling'
p1319
sg28
(lp1320
F0.60021935002077953
aF0.8668483142319019
aF1.5665893156838138
aF1.9665463951914717
aF2.3329488238887279
aF3.8491200336684415
aF4.0489309653712553
aF4.2322300179130252
aF4.5320582076292339
aF5.2318607990273449
aF5.5148896898426756
aF6.0481585248180636
aF7.1810760404841858
aF7.3478179837511561
aF7.8641406021451985
aF8.114198342716918
aF9.4468706534171361
asS'trials.thisN'
p1321
I109
sg40
g41
sg16
g80
sg17
F6.5460000000000003
sg27
(lp1322
S's'
aS'r'
aS'i'
aS'r'
aS'l'
aS'backspace'
p1323
aS'backspace'
p1324
aS'backspace'
p1325
aS'backspace'
p1326
aS't'
aS'i'
aS'r'
aS'l'
aS'i'
aS'n'
aS'g'
aS'return'
p1327
asS'trials.thisRepN'
p1328
I0
sg42
g43
sg22
F0.68799999999999994
sg19
NsS'trials.thisTrialN'
p1329
I109
sg23
Nsg21
g85
sg18
Nsa(dp1330
g20
F1.321
sg39
g11
sS'trials.thisIndex'
p1331
g35
(g60
S'\xa1\x00\x00\x00'
tRp1332
sg25
Nsg53
V./greyInner/OmarEpps(DrEricForeman)2_2_cut.png
p1333
sg34
g38
sg24
Nsg52
g35
(g63
S'\xa2\x00\x00\x00\x00\x00\x00\x00'
tRp1334
sg32
g33
sg26
S'comedien'
p1335
sg28
(lp1336
F1.2999824853595783
aF1.4497236792813055
aF1.8495883738723933
aF2.0164563840553456
aF2.2159968974065123
aF2.3669291510341282
aF2.8493776207815245
aF2.9660052377130341
aF3.5989307729032589
asS'trials.thisN'
p1337
I110
sg40
g41
sg16
g80
sg17
F3.2690000000000001
sg27
(lp1338
S'c'
aS'o'
aS'm'
aS'e'
aS'd'
aS'i'
aS'e'
aS'n'
aS'return'
p1339
asS'trials.thisRepN'
p1340
I0
sg42
g43
sg22
Nsg19
g216
sS'trials.thisTrialN'
p1341
I110
sg23
Nsg21
Nsg18
Nsa(dp1342
g20
Nsg39
g11
sS'trials.thisIndex'
p1343
g35
(g60
S'\xb0\x00\x00\x00'
tRp1344
sg25
Nsg53
V./greyInner/Shakira2_1_cut.png
p1345
sg34
g38
sg24
Nsg52
g35
(g63
S'\xb1\x00\x00\x00\x00\x00\x00\x00'
tRp1346
sg32
g33
sg26
S''
sg28
(lp1347
F0.75034740577939374
asS'trials.thisN'
p1348
I111
sg40
g41
sg16
g67
sg17
F1.4139999999999999
sg27
(lp1349
S'return'
p1350
asS'trials.thisRepN'
p1351
I0
sg42
g43
sg22
F5.6609999999999996
sg19
NsS'trials.thisTrialN'
p1352
I111
sg23
Nsg21
g273
sg18
Nsa(dp1353
g20
Nsg39
g11
sS'trials.thisIndex'
p1354
g35
(g60
S'.\x00\x00\x00'
tRp1355
sg25
Nsg53
V./greyInner/CristinMilioti(Tracy_Mutter)2_1_cut.png
p1356
sg34
g38
sg24
F1.9279999999999999
sg52
g35
(g63
S'/\x00\x00\x00\x00\x00\x00\x00'
tRp1357
sg32
g33
sg26
S''
sg28
(lp1358
F0.18372601199916971
asS'trials.thisN'
p1359
I112
sg40
g41
sg16
g67
sg17
F1.5980000000000001
sg27
(lp1360
S'return'
p1361
asS'trials.thisRepN'
p1362
I0
sg42
g43
sg22
Nsg19
NsS'trials.thisTrialN'
p1363
I112
sg23
g110
sg21
Nsg18
Nsa(dp1364
g20
Nsg39
g11
sS'trials.thisIndex'
p1365
g35
(g60
S'w\x00\x00\x00'
tRp1366
sg25
Nsg53
V./greyInner/JudithRakers8_1_cut.png
p1367
sg34
g38
sg24
Nsg52
g35
(g63
S'x\x00\x00\x00\x00\x00\x00\x00'
tRp1368
sg32
g33
sg26
S''
sg28
(lp1369
F0.19939487879673834
asS'trials.thisN'
p1370
I113
sg40
g41
sg16
g67
sg17
F1.425
sg27
(lp1371
S'return'
p1372
asS'trials.thisRepN'
p1373
I0
sg42
g43
sg22
F3.7410000000000001
sg19
NsS'trials.thisTrialN'
p1374
I113
sg23
Nsg21
g273
sg18
Nsa(dp1375
g20
F4.2590000000000003
sg39
g11
sS'trials.thisIndex'
p1376
g35
(g60
S'C\x00\x00\x00'
tRp1377
sg25
Nsg53
V./greyInner/EmmaWatson(HermioneGranger)3_1_cut.png
p1378
sg34
g38
sg24
Nsg52
g35
(g63
S'D\x00\x00\x00\x00\x00\x00\x00'
tRp1379
sg32
g33
sg26
S'olsen'
p1380
sg28
(lp1381
F34.137383107417918
aF34.370527992630741
aF34.570410779268059
aF34.753603332530474
aF34.853695974070433
aF35.420218567314805
asS'trials.thisN'
p1382
I114
sg40
g41
sg16
g80
sg17
F3.73
sg27
(lp1383
S'o'
aS'l'
aS's'
aS'e'
aS'n'
aS'return'
p1384
asS'trials.thisRepN'
p1385
I0
sg42
g43
sg22
Nsg19
g71
sS'trials.thisTrialN'
p1386
I114
sg23
Nsg21
Nsg18
Nsa(dp1387
g20
Nsg39
g11
sS'trials.thisIndex'
p1388
g35
(g60
S'^\x00\x00\x00'
tRp1389
sg25
Nsg53
V./greyInner/JanHofer9_2_cut.png
p1390
sg34
g38
sg24
F0.996
sg52
g35
(g63
S'_\x00\x00\x00\x00\x00\x00\x00'
tRp1391
sg32
g33
sg26
S''
sg28
(lp1392
F0.56686197949966299
asS'trials.thisN'
p1393
I115
sg40
g41
sg16
g67
sg17
F2.5790000000000002
sg27
(lp1394
S'return'
p1395
asS'trials.thisRepN'
p1396
I0
sg42
g43
sg22
Nsg19
NsS'trials.thisTrialN'
p1397
I115
sg23
g136
sg21
Nsg18
Nsa(dp1398
g20
Nsg39
g11
sS'trials.thisIndex'
p1399
g35
(g60
S'\xcc\x00\x00\x00'
tRp1400
sg25
Nsg53
V./greyInner/Usher7_1_cut.png
p1401
sg34
g38
sg24
F1.893
sg52
g35
(g63
S'\xcd\x00\x00\x00\x00\x00\x00\x00'
tRp1402
sg32
g33
sg26
S'boks'
p1403
sg28
(lp1404
F1.6164704342609184
aF1.9495963292392844
aF2.1496468843179173
aF2.3495569373371836
aF2.7156703423879662
asS'trials.thisN'
p1405
I116
sg40
g41
sg16
g80
sg17
F3.2429999999999999
sg27
(lp1406
S'b'
aS'o'
aS'k'
aS's'
aS'return'
p1407
asS'trials.thisRepN'
p1408
I0
sg42
g43
sg22
Nsg19
NsS'trials.thisTrialN'
p1409
I116
sg23
g110
sg21
Nsg18
Nsa(dp1410
g20
F2.5299999999999998
sg39
g11
sS'trials.thisIndex'
p1411
g35
(g60
S'N\x00\x00\x00'
tRp1412
sg25
Nsg53
V./greyInner/GeorgeClooney3_1_cut.png
p1413
sg34
g38
sg24
Nsg52
g35
(g63
S'O\x00\x00\x00\x00\x00\x00\x00'
tRp1414
sg32
g33
sg26
S''
sg28
(lp1415
F26.840137525212413
asS'trials.thisN'
p1416
I117
sg40
g41
sg16
g80
sg17
F4.0789999999999997
sg27
(lp1417
S'return'
p1418
asS'trials.thisRepN'
p1419
I0
sg42
g43
sg22
Nsg19
g71
sS'trials.thisTrialN'
p1420
I117
sg23
Nsg21
Nsg18
Nsa(dp1421
g20
F0.96399999999999997
sg39
g11
sS'trials.thisIndex'
p1422
g35
(g60
S'\xcd\x00\x00\x00'
tRp1423
sg25
Nsg53
V./greyInner/WillSmith1_1_cut.png
p1424
sg34
g38
sg24
Nsg52
g35
(g63
S'\xce\x00\x00\x00\x00\x00\x00\x00'
tRp1425
sg32
g33
sg26
S'merfi'
p1426
sg28
(lp1427
F0.89991826501136529
aF1.3163885068024683
aF1.4499963430971547
aF1.6666187633763911
aF2.0166754774490983
aF2.3663844649618113
asS'trials.thisN'
p1428
I118
sg40
g41
sg16
g80
sg17
F3.246
sg27
(lp1429
S'm'
aS'e'
aS'r'
aS'f'
aS'i'
aS'return'
p1430
asS'trials.thisRepN'
p1431
I0
sg42
g43
sg22
Nsg19
g71
sS'trials.thisTrialN'
p1432
I118
sg23
Nsg21
Nsg18
Nsa(dp1433
g20
Nsg39
g11
sS'trials.thisIndex'
p1434
g35
(g60
S'4\x00\x00\x00'
tRp1435
sg25
Nsg53
V./greyInner/DannFlorek(DonaldDonCragen)2_1_cut.png
p1436
sg34
g38
sg24
F0.89600000000000002
sg52
g35
(g63
S'5\x00\x00\x00\x00\x00\x00\x00'
tRp1437
sg32
g33
sg26
S''
sg28
(lp1438
F0.25067620626396092
asS'trials.thisN'
p1439
I119
sg40
g41
sg16
g67
sg17
F1.5780000000000001
sg27
(lp1440
S'return'
p1441
asS'trials.thisRepN'
p1442
I0
sg42
g43
sg22
Nsg19
NsS'trials.thisTrialN'
p1443
I119
sg23
g136
sg21
Nsg18
Nsa(dp1444
g20
F5.8289999999999997
sg39
g11
sS'trials.thisIndex'
p1445
g35
(g60
S'\xa2\x00\x00\x00'
tRp1446
sg25
Nsg53
V./greyInner/OmarEpps(DrEricForeman)3_1_cut.png
p1447
sg34
g38
sg24
Nsg52
g35
(g63
S'\xa3\x00\x00\x00\x00\x00\x00\x00'
tRp1448
sg32
g33
sg26
S''
sg28
(lp1449
F0.23357120310902246
asS'trials.thisN'
p1450
I120
sg40
g41
sg16
g80
sg17
F2.9580000000000002
sg27
(lp1451
S'return'
p1452
asS'trials.thisRepN'
p1453
I0
sg42
g43
sg22
Nsg19
g71
sS'trials.thisTrialN'
p1454
I120
sg23
Nsg21
Nsg18
Nsa(dp1455
g20
F1.278
sg39
g11
sS'trials.thisIndex'
p1456
g35
(g60
S'b\x00\x00\x00'
tRp1457
sg25
Nsg53
V./greyInner/JasonSegel(Marshall)7_1_cut.png
p1458
sg34
g38
sg24
Nsg52
g35
(g63
S'c\x00\x00\x00\x00\x00\x00\x00'
tRp1459
sg32
g33
sg26
S''
sg28
(lp1460
F8.0473081344916864
asS'trials.thisN'
p1461
I121
sg40
g41
sg16
g80
sg17
F1.8109999999999999
sg27
(lp1462
S'return'
p1463
asS'trials.thisRepN'
p1464
I0
sg42
g43
sg22
Nsg19
g71
sS'trials.thisTrialN'
p1465
I121
sg23
Nsg21
Nsg18
Nsa(dp1466
g20
Nsg39
g11
sS'trials.thisIndex'
p1467
g35
(g60
S'!\x00\x00\x00'
tRp1468
sg25
Nsg53
V./greyInner/BritneySpears7_1_cut.png
p1469
sg34
g38
sg24
Nsg52
g35
(g63
S'"\x00\x00\x00\x00\x00\x00\x00'
tRp1470
sg32
g33
sg26
S''
sg28
(lp1471
F0.36689258200385666
asS'trials.thisN'
p1472
I122
sg40
g41
sg16
g67
sg17
F3.48
sg27
(lp1473
S'return'
p1474
asS'trials.thisRepN'
p1475
I0
sg42
g43
sg22
F3.5619999999999998
sg19
NsS'trials.thisTrialN'
p1476
I122
sg23
Nsg21
g85
sg18
Nsa(dp1477
g20
Nsg39
g11
sS'trials.thisIndex'
p1478
g35
(g60
S'X\x00\x00\x00'
tRp1479
sg25
Nsg53
V./greyInner/Ice-T(OdafinFinTutuola)6_1_cut.png
p1480
sg34
g38
sg24
Nsg52
g35
(g63
S'Y\x00\x00\x00\x00\x00\x00\x00'
tRp1481
sg32
g33
sg26
S''
sg28
(lp1482
F0.18375456150533864
asS'trials.thisN'
p1483
I123
sg40
g41
sg16
g67
sg17
F2.0710000000000002
sg27
(lp1484
S'return'
p1485
asS'trials.thisRepN'
p1486
I0
sg42
g43
sg22
F6.4859999999999998
sg19
NsS'trials.thisTrialN'
p1487
I123
sg23
Nsg21
g273
sg18
Nsa(dp1488
g20
F0.89200000000000002
sg39
g11
sS'trials.thisIndex'
p1489
g35
(g60
S'\xbf\x00\x00\x00'
tRp1490
sg25
Nsg53
V./greyInner/TomCruise4_1_cut.png
p1491
sg34
g38
sg24
Nsg52
g35
(g63
S'\xc0\x00\x00\x00\x00\x00\x00\x00'
tRp1492
sg32
g33
sg26
S'bred pit'
p1493
sg28
(lp1494
F4.3319720458639495
aF4.7984106586518465
aF4.9817138813468773
aF5.1815690808216459
aF5.9648177065955679
aF6.2146682226684788
aF6.6642886104782519
aF7.0648474750687456
aF10.196413219768147
aF10.646262645184834
aF10.846227551748598
aF10.995841716408904
aF11.295701984221523
aF12.062255885688501
aF12.162091581680215
aF12.845421108413575
aF12.92863489737465
asS'trials.thisN'
p1495
I124
sg40
g41
sg16
g80
sg17
F5.9729999999999999
sg27
(lp1496
S'b'
aS'r'
aS'e'
aS'd'
aS'backspace'
p1497
aS'backspace'
p1498
aS'backspace'
p1499
aS'backspace'
p1500
aS'b'
aS'r'
aS'e'
aS'd'
aS'space'
p1501
aS'p'
aS'i'
aS't'
aS'return'
p1502
asS'trials.thisRepN'
p1503
I0
sg42
g43
sg22
Nsg19
g71
sS'trials.thisTrialN'
p1504
I124
sg23
Nsg21
Nsg18
Nsa(dp1505
g20
F0.57899999999999996
sg39
g11
sS'trials.thisIndex'
p1506
g35
(g60
S'e\x00\x00\x00'
tRp1507
sg25
Nsg53
V./greyInner/JimParsons(SheldonCooper)10_1_cut.png
p1508
sg34
g38
sg24
Nsg52
g35
(g63
S'f\x00\x00\x00\x00\x00\x00\x00'
tRp1509
sg32
g33
sg26
S''
sg28
(lp1510
F0.8835058279473742
asS'trials.thisN'
p1511
I125
sg40
g41
sg16
g80
sg17
F2.2949999999999999
sg27
(lp1512
S'return'
p1513
asS'trials.thisRepN'
p1514
I0
sg42
g43
sg22
Nsg19
g216
sS'trials.thisTrialN'
p1515
I125
sg23
Nsg21
Nsg18
Nsa(dp1516
g20
Nsg39
g11
sS'trials.thisIndex'
p1517
g35
(g60
S'\xd4\x00\x00\x00'
tRp1518
sg25
Nsg53
V./greyInner/notfamousface12_2_cut.png
p1519
sg34
g38
sg24
Nsg52
g35
(g63
S'\xd5\x00\x00\x00\x00\x00\x00\x00'
tRp1520
sg32
g33
sg26
S''
sg28
(lp1521
F0.20025393020841875
asS'trials.thisN'
p1522
I126
sg40
g41
sg16
g67
sg17
F1.3360000000000001
sg27
(lp1523
S'return'
p1524
asS'trials.thisRepN'
p1525
I0
sg42
g43
sg22
F0.98599999999999999
sg19
NsS'trials.thisTrialN'
p1526
I126
sg23
Nsg21
g85
sg18
Nsa(dp1527
g20
Nsg39
g11
sS'trials.thisIndex'
p1528
g35
(g60
S'\xc8\x00\x00\x00'
tRp1529
sg25
Nsg53
V./greyInner/Usher1_1_cut.png
p1530
sg34
g38
sg24
F6.2320000000000002
sg52
g35
(g63
S'\xc9\x00\x00\x00\x00\x00\x00\x00'
tRp1531
sg32
g33
sg26
S''
sg28
(lp1532
F1.4831189019532758
asS'trials.thisN'
p1533
I127
sg40
g41
sg16
g80
sg17
F3.6499999999999999
sg27
(lp1534
S'return'
p1535
asS'trials.thisRepN'
p1536
I0
sg42
g43
sg22
Nsg19
NsS'trials.thisTrialN'
p1537
I127
sg23
g110
sg21
Nsg18
Nsa(dp1538
g20
Nsg39
g11
sS'trials.thisIndex'
p1539
g35
(g60
S'\x9b\x00\x00\x00'
tRp1540
sg25
Nsg53
V./greyInner/NicoleKidman14_1_cut.png
p1541
sg34
g38
sg24
Nsg52
g35
(g63
S'\x9c\x00\x00\x00\x00\x00\x00\x00'
tRp1542
sg32
g33
sg26
S''
sg28
(lp1543
F0.50048951174721878
asS'trials.thisN'
p1544
I128
sg40
g41
sg16
g67
sg17
F1.746
sg27
(lp1545
S'return'
p1546
asS'trials.thisRepN'
p1547
I0
sg42
g43
sg22
F14.355
sg19
NsS'trials.thisTrialN'
p1548
I128
sg23
Nsg21
g85
sg18
Nsa(dp1549
g20
Nsg39
g11
sS'trials.thisIndex'
p1550
g35
(g60
S'm\x00\x00\x00'
tRp1551
sg25
Nsg53
V./greyInner/JoachimLoew8_1_cut.png
p1552
sg34
g38
sg24
F0.70799999999999996
sg52
g35
(g63
S'n\x00\x00\x00\x00\x00\x00\x00'
tRp1553
sg32
g33
sg26
S''
sg28
(lp1554
F0.85001052161533153
asS'trials.thisN'
p1555
I129
sg40
g41
sg16
g67
sg17
F1.758
sg27
(lp1556
S'return'
p1557
asS'trials.thisRepN'
p1558
I0
sg42
g43
sg22
Nsg19
NsS'trials.thisTrialN'
p1559
I129
sg23
g136
sg21
Nsg18
Nsa(dp1560
g20
F1.5620000000000001
sg39
g11
sS'trials.thisIndex'
p1561
g35
(g60
S'\x88\x00\x00\x00'
tRp1562
sg25
Nsg53
V./greyInner/LisaEdelstein(DrLisaCuddy)10_1_cut.png
p1563
sg34
g38
sg24
Nsg52
g35
(g63
S'\x89\x00\x00\x00\x00\x00\x00\x00'
tRp1564
sg32
g33
sg26
S'brazil'
p1565
sg28
(lp1566
F1.3000158465802087
aF1.8166297340849269
aF2.532991038662658
aF2.9830371028092486
aF3.266012743986721
aF3.482639975980419
aF4.0824214599906554
asS'trials.thisN'
p1567
I130
sg40
g41
sg16
g67
sg17
F4.343
sg27
(lp1568
S'b'
aS'r'
aS'a'
aS'z'
aS'i'
aS'l'
aS'return'
p1569
asS'trials.thisRepN'
p1570
I0
sg42
g43
sg22
Nsg19
g216
sS'trials.thisTrialN'
p1571
I130
sg23
Nsg21
Nsg18
Nsa(dp1572
g20
Nsg39
g11
sS'trials.thisIndex'
p1573
g35
(g60
S'\x0f\x00\x00\x00'
tRp1574
sg25
Nsg53
V./greyInner/BastianSchweinsteiger1_1_cut.png
p1575
sg34
g38
sg24
F8.7539999999999996
sg52
g35
(g63
S'\x10\x00\x00\x00\x00\x00\x00\x00'
tRp1576
sg32
g33
sg26
S''
sg28
(lp1577
F0.66686319846849074
asS'trials.thisN'
p1578
I131
sg40
g41
sg16
g67
sg17
F1.5409999999999999
sg27
(lp1579
S'return'
p1580
asS'trials.thisRepN'
p1581
I0
sg42
g43
sg22
Nsg19
NsS'trials.thisTrialN'
p1582
I131
sg23
g110
sg21
Nsg18
Nsa(dp1583
g20
Nsg39
g11
sS'trials.thisIndex'
p1584
g35
(g60
S'\x87\x00\x00\x00'
tRp1585
sg25
Nsg53
V./greyInner/LisaEdelstein(DrLisaCuddy)1_1_cut.png
p1586
sg34
g38
sg24
Nsg52
g35
(g63
S'\x88\x00\x00\x00\x00\x00\x00\x00'
tRp1587
sg32
g33
sg26
S''
sg28
(lp1588
F0.75007538352656411
asS'trials.thisN'
p1589
I132
sg40
g41
sg16
g67
sg17
F2.613
sg27
(lp1590
S'return'
p1591
asS'trials.thisRepN'
p1592
I0
sg42
g43
sg22
F3.3119999999999998
sg19
NsS'trials.thisTrialN'
p1593
I132
sg23
Nsg21
g85
sg18
Nsa(dp1594
g20
F1.2230000000000001
sg39
g11
sS'trials.thisIndex'
p1595
g35
(g60
S'\x18\x00\x00\x00'
tRp1596
sg25
Nsg53
V./greyInner/BenedictCumberbatch6_5_cut.png
p1597
sg34
g38
sg24
Nsg52
g35
(g63
S'\x19\x00\x00\x00\x00\x00\x00\x00'
tRp1598
sg32
g33
sg26
S''
sg28
(lp1599
F0.88367969122919021
asS'trials.thisN'
p1600
I133
sg40
g41
sg16
g80
sg17
F2.4100000000000001
sg27
(lp1601
S'return'
p1602
asS'trials.thisRepN'
p1603
I0
sg42
g43
sg22
Nsg19
g71
sS'trials.thisTrialN'
p1604
I133
sg23
Nsg21
Nsg18
Nsa(dp1605
g20
Nsg39
g11
sS'trials.thisIndex'
p1606
g35
(g60
S'\x10\x00\x00\x00'
tRp1607
sg25
Nsg53
V./greyInner/BastianSchweinsteiger12_1_cut.png
p1608
sg34
g38
sg24
F2.1629999999999998
sg52
g35
(g63
S'\x11\x00\x00\x00\x00\x00\x00\x00'
tRp1609
sg32
g33
sg26
S''
sg28
(lp1610
F0.66671339375898242
asS'trials.thisN'
p1611
I134
sg40
g41
sg16
g67
sg17
F1.5960000000000001
sg27
(lp1612
S'return'
p1613
asS'trials.thisRepN'
p1614
I0
sg42
g43
sg22
Nsg19
NsS'trials.thisTrialN'
p1615
I134
sg23
g110
sg21
Nsg18
Nsa(dp1616
g20
Nsg39
g11
sS'trials.thisIndex'
p1617
g35
(g60
S'\xdb\x00\x00\x00'
tRp1618
sg25
Nsg53
V./greyInner/notfamousface5_1_cut.png
p1619
sg34
g38
sg24
F0.749
sg52
g35
(g63
S'\xdc\x00\x00\x00\x00\x00\x00\x00'
tRp1620
sg32
g33
sg26
S''
sg28
(lp1621
F0.80142664124286966
asS'trials.thisN'
p1622
I135
sg40
g41
sg16
g67
sg17
F1.6379999999999999
sg27
(lp1623
S'return'
p1624
asS'trials.thisRepN'
p1625
I0
sg42
g43
sg22
Nsg19
NsS'trials.thisTrialN'
p1626
I135
sg23
g136
sg21
Nsg18
Nsa(dp1627
g20
F0.497
sg39
g11
sS'trials.thisIndex'
p1628
g35
(g60
S'\xc2\x00\x00\x00'
tRp1629
sg25
Nsg53
V./greyInner/TomCruise7_1_cut.png
p1630
sg34
g38
sg24
Nsg52
g35
(g63
S'\xc3\x00\x00\x00\x00\x00\x00\x00'
tRp1631
sg32
g33
sg26
S'bred pit'
p1632
sg28
(lp1633
F1.0665466518166795
aF1.5832118642756541
aF1.7497026360488235
aF1.9162925291384454
aF2.4827493622869952
aF3.5000157182657858
aF3.8320839984189661
aF4.3153180607368995
aF4.4325477835318452
asS'trials.thisN'
p1634
I136
sg40
g41
sg16
g80
sg17
F7.0110000000000001
sg27
(lp1635
S'b'
aS'r'
aS'e'
aS'd'
aS'space'
p1636
aS'p'
aS'i'
aS't'
aS'return'
p1637
asS'trials.thisRepN'
p1638
I0
sg42
g43
sg22
Nsg19
g71
sS'trials.thisTrialN'
p1639
I136
sg23
Nsg21
Nsg18
Nsa(dp1640
g20
Nsg39
g11
sS'trials.thisIndex'
p1641
g35
(g60
S'\t\x00\x00\x00'
tRp1642
sg25
Nsg53
V./greyInner/AngelaMerkel6_1_cut.png
p1643
sg34
g38
sg24
F1.7450000000000001
sg52
g35
(g63
S'\n\x00\x00\x00\x00\x00\x00\x00'
tRp1644
sg32
g33
sg26
S''
sg28
(lp1645
F0.43376514727606263
asS'trials.thisN'
p1646
I137
sg40
g41
sg16
g67
sg17
F5.1900000000000004
sg27
(lp1647
S'return'
p1648
asS'trials.thisRepN'
p1649
I0
sg42
g43
sg22
Nsg19
NsS'trials.thisTrialN'
p1650
I137
sg23
g136
sg21
Nsg18
Nsa(dp1651
g20
Nsg39
g11
sS'trials.thisIndex'
p1652
g35
(g60
S'0\x00\x00\x00'
tRp1653
sg25
Nsg53
V./greyInner/CristinMilioti(Tracy_Mutter)8_1_cut.png
p1654
sg34
g38
sg24
Nsg52
g35
(g63
S'1\x00\x00\x00\x00\x00\x00\x00'
tRp1655
sg32
g33
sg26
S''
sg28
(lp1656
F0.43339817385822244
asS'trials.thisN'
p1657
I138
sg40
g41
sg16
g67
sg17
F2.0710000000000002
sg27
(lp1658
S'return'
p1659
asS'trials.thisRepN'
p1660
I0
sg42
g43
sg22
F4.5990000000000002
sg19
NsS'trials.thisTrialN'
p1661
I138
sg23
Nsg21
g85
sg18
Nsa(dp1662
g20
Nsg39
g11
sS'trials.thisIndex'
p1663
g35
(g60
S'\xda\x00\x00\x00'
tRp1664
sg25
Nsg53
V./greyInner/notfamousface4_2_cut.png
p1665
sg34
g38
sg24
Nsg52
g35
(g63
S'\xdb\x00\x00\x00\x00\x00\x00\x00'
tRp1666
sg32
g33
sg26
S''
sg28
(lp1667
F0.20038609196308244
asS'trials.thisN'
p1668
I139
sg40
g41
sg16
g67
sg17
F2.0169999999999999
sg27
(lp1669
S'return'
p1670
asS'trials.thisRepN'
p1671
I0
sg42
g43
sg22
F1.536
sg19
NsS'trials.thisTrialN'
p1672
I139
sg23
Nsg21
g85
sg18
Nsa(dp1673
g20
F0.67900000000000005
sg39
g11
sS'trials.thisIndex'
p1674
g35
(g60
S'h\x00\x00\x00'
tRp1675
sg25
Nsg53
V./greyInner/JimParsons(SheldonCooper)9_3_cut.png
p1676
sg34
g38
sg24
Nsg52
g35
(g63
S'i\x00\x00\x00\x00\x00\x00\x00'
tRp1677
sg32
g33
sg26
S''
sg28
(lp1678
F1.4501371659389406
asS'trials.thisN'
p1679
I140
sg40
g41
sg16
g80
sg17
F1.708
sg27
(lp1680
S'return'
p1681
asS'trials.thisRepN'
p1682
I0
sg42
g43
sg22
Nsg19
g71
sS'trials.thisTrialN'
p1683
I140
sg23
Nsg21
Nsg18
Nsa(dp1684
g20
Nsg39
g11
sS'trials.thisIndex'
p1685
g35
(g60
S'\x11\x00\x00\x00'
tRp1686
sg25
Nsg53
V./greyInner/BastianSchweinsteiger14_1_cut.png
p1687
sg34
g38
sg24
F1.363
sg52
g35
(g63
S'\x12\x00\x00\x00\x00\x00\x00\x00'
tRp1688
sg32
g33
sg26
S''
sg28
(lp1689
F0.35052858286690025
asS'trials.thisN'
p1690
I141
sg40
g41
sg16
g67
sg17
F1.1299999999999999
sg27
(lp1691
S'return'
p1692
asS'trials.thisRepN'
p1693
I0
sg42
g43
sg22
Nsg19
NsS'trials.thisTrialN'
p1694
I141
sg23
g110
sg21
Nsg18
Nsa(dp1695
g20
Nsg39
g11
sS'trials.thisIndex'
p1696
g35
(g60
S'\x19\x00\x00\x00'
tRp1697
sg25
Nsg53
V./greyInner/Beyonce1_1_cut.png
p1698
sg34
g38
sg24
Nsg52
g35
(g63
S'\x1a\x00\x00\x00\x00\x00\x00\x00'
tRp1699
sg32
g33
sg26
S''
sg28
(lp1700
F0.40030352294525073
asS'trials.thisN'
p1701
I142
sg40
g41
sg16
g67
sg17
F38.475000000000001
sg27
(lp1702
S'return'
p1703
asS'trials.thisRepN'
p1704
I0
sg42
g43
sg22
F0.70399999999999996
sg19
NsS'trials.thisTrialN'
p1705
I142
sg23
Nsg21
g85
sg18
Nsa(dp1706
g20
F3.802
sg39
g11
sS'trials.thisIndex'
p1707
g35
(g60
S'o\x00\x00\x00'
tRp1708
sg25
Nsg53
V./greyInner/JoshRadnor(Ted)3_1_cut.png
p1709
sg34
g38
sg24
Nsg52
g35
(g63
S'p\x00\x00\x00\x00\x00\x00\x00'
tRp1710
sg32
g33
sg26
S''
sg28
(lp1711
F0.26704726258503797
asS'trials.thisN'
p1712
I143
sg40
g41
sg16
g80
sg17
F2.2480000000000002
sg27
(lp1713
S'return'
p1714
asS'trials.thisRepN'
p1715
I0
sg42
g43
sg22
Nsg19
g71
sS'trials.thisTrialN'
p1716
I143
sg23
Nsg21
Nsg18
Nsa(dp1717
g20
Nsg39
g11
sS'trials.thisIndex'
p1718
g35
(g60
S'\x80\x00\x00\x00'
tRp1719
sg25
Nsg53
V./greyInner/KatjaBurkard5_3_cut.png
p1720
sg34
g38
sg24
Nsg52
g35
(g63
S'\x81\x00\x00\x00\x00\x00\x00\x00'
tRp1721
sg32
g33
sg26
S''
sg28
(lp1722
F0.30016661362969899
asS'trials.thisN'
p1723
I144
sg40
g41
sg16
g67
sg17
F1.2689999999999999
sg27
(lp1724
S'return'
p1725
asS'trials.thisRepN'
p1726
I0
sg42
g43
sg22
F3.6349999999999998
sg19
NsS'trials.thisTrialN'
p1727
I144
sg23
Nsg21
g273
sg18
Nsa(dp1728
g20
F0.91000000000000003
sg39
g11
sS'trials.thisIndex'
p1729
g35
(g60
S'Q\x00\x00\x00'
tRp1730
sg25
Nsg53
V./greyInner/HughLaurie(DrHouse)4_1_cut.png
p1731
sg34
g38
sg24
Nsg52
g35
(g63
S'R\x00\x00\x00\x00\x00\x00\x00'
tRp1732
sg32
g33
sg26
S'doktor haus'
p1733
sg28
(lp1734
F1.4496896764976555
aF1.5831454626168124
aF1.7495794561600633
aF2.3495081786313676
aF2.7993162233033217
aF2.8824478923397692
aF3.3156067636009539
aF4.5650203760051227
aF5.8146440999389597
aF5.9313936136350094
aF6.4144945518546592
aF6.5476905053965311
asS'trials.thisN'
p1735
I145
sg40
g41
sg16
g80
sg17
F3.9409999999999998
sg27
(lp1736
S'd'
aS'o'
aS'k'
aS't'
aS'o'
aS'r'
aS'space'
p1737
aS'h'
aS'a'
aS'u'
aS's'
aS'return'
p1738
asS'trials.thisRepN'
p1739
I0
sg42
g43
sg22
Nsg19
g71
sS'trials.thisTrialN'
p1740
I145
sg23
Nsg21
Nsg18
Nsa(dp1741
g20
F0.745
sg39
g11
sS'trials.thisIndex'
p1742
g35
(g60
S'A\x00\x00\x00'
tRp1743
sg25
Nsg53
V./greyInner/EmmaWatson(HermioneGranger)11_2_cut.png
p1744
sg34
g38
sg24
Nsg52
g35
(g63
S'B\x00\x00\x00\x00\x00\x00\x00'
tRp1745
sg32
g33
sg26
S'lindsey lohan'
p1746
sg28
(lp1747
F0.99990376571076922
aF1.2664522139020846
aF1.5494419694405224
aF2.3493291828544898
aF2.5658608221219765
aF2.7491172107966122
aF3.3656688026403572
aF3.5653533466429508
aF4.4152657092854497
aF4.6152460133343993
aF5.9644975671963039
aF6.0645613384513126
aF6.1977123826582101
aF6.9975210047359724
asS'trials.thisN'
p1748
I146
sg40
g41
sg16
g80
sg17
F9.359
sg27
(lp1749
S'l'
aS'i'
aS'n'
aS'd'
aS's'
aS'e'
aS'y'
aS'space'
p1750
aS'l'
aS'o'
aS'h'
aS'a'
aS'n'
aS'return'
p1751
asS'trials.thisRepN'
p1752
I0
sg42
g43
sg22
Nsg19
g71
sS'trials.thisTrialN'
p1753
I146
sg23
Nsg21
Nsg18
Nsa(dp1754
g20
Nsg39
g11
sS'trials.thisIndex'
p1755
g35
(g60
S'\xaa\x00\x00\x00'
tRp1756
sg25
Nsg53
V./greyInner/SahraWagenknecht12_1_cut.png
p1757
sg34
g38
sg24
Nsg52
g35
(g63
S'\xab\x00\x00\x00\x00\x00\x00\x00'
tRp1758
sg32
g33
sg26
S''
sg28
(lp1759
F0.31699734906578669
asS'trials.thisN'
p1760
I147
sg40
g41
sg16
g67
sg17
F1.829
sg27
(lp1761
S'return'
p1762
asS'trials.thisRepN'
p1763
I0
sg42
g43
sg22
F1.1120000000000001
sg19
NsS'trials.thisTrialN'
p1764
I147
sg23
Nsg21
g85
sg18
Nsa(dp1765
g20
F2.7589999999999999
sg39
g11
sS'trials.thisIndex'
p1766
g35
(g60
S'\x96\x00\x00\x00'
tRp1767
sg25
Nsg53
V./greyInner/NeilPatrickHarris(Barney)1_1_cut.png
p1768
sg34
g38
sg24
Nsg52
g35
(g63
S'\x97\x00\x00\x00\x00\x00\x00\x00'
tRp1769
sg32
g33
sg26
S''
sg28
(lp1770
F3.6161409922151506
asS'trials.thisN'
p1771
I148
sg40
g41
sg16
g80
sg17
F1.3779999999999999
sg27
(lp1772
S'return'
p1773
asS'trials.thisRepN'
p1774
I0
sg42
g43
sg22
Nsg19
g71
sS'trials.thisTrialN'
p1775
I148
sg23
Nsg21
Nsg18
Nsa(dp1776
g20
Nsg39
g11
sS'trials.thisIndex'
p1777
g35
(g60
S'%\x00\x00\x00'
tRp1778
sg25
Nsg53
V./greyInner/CarenMiosga2_11_cut.png
p1779
sg34
g38
sg24
Nsg52
g35
(g63
S'&\x00\x00\x00\x00\x00\x00\x00'
tRp1780
sg32
g33
sg26
S''
sg28
(lp1781
F0.40044113797739556
asS'trials.thisN'
p1782
I149
sg40
g41
sg16
g67
sg17
F4.2560000000000002
sg27
(lp1783
S'return'
p1784
asS'trials.thisRepN'
p1785
I0
sg42
g43
sg22
F1.669
sg19
NsS'trials.thisTrialN'
p1786
I149
sg23
Nsg21
g273
sg18
Nsa(dp1787
g20
Nsg39
g11
sS'trials.thisIndex'
p1788
g35
(g60
S'$\x00\x00\x00'
tRp1789
sg25
Nsg53
V./greyInner/CarenMiosga13_1_cut.png
p1790
sg34
g38
sg24
F0.96299999999999997
sg52
g35
(g63
S'%\x00\x00\x00\x00\x00\x00\x00'
tRp1791
sg32
g33
sg26
S''
sg28
(lp1792
F0.23370528954910696
asS'trials.thisN'
p1793
I150
sg40
g41
sg16
g67
sg17
F1.5449999999999999
sg27
(lp1794
S'return'
p1795
asS'trials.thisRepN'
p1796
I0
sg42
g43
sg22
Nsg19
NsS'trials.thisTrialN'
p1797
I150
sg23
g136
sg21
Nsg18
Nsa(dp1798
g20
Nsg39
g11
sS'trials.thisIndex'
p1799
g35
(g60
S'\xca\x00\x00\x00'
tRp1800
sg25
Nsg53
V./greyInner/Usher2_1_cut.png
p1801
sg34
g38
sg24
Nsg52
g35
(g63
S'\xcb\x00\x00\x00\x00\x00\x00\x00'
tRp1802
sg32
g33
sg26
S''
sg28
(lp1803
F1.4660735640572966
asS'trials.thisN'
p1804
I151
sg40
g41
sg16
g80
sg17
F2.2109999999999999
sg27
(lp1805
S'return'
p1806
asS'trials.thisRepN'
p1807
I0
sg42
g43
sg22
F0.59899999999999998
sg19
NsS'trials.thisTrialN'
p1808
I151
sg23
Nsg21
g85
sg18
Nsa(dp1809
g20
Nsg39
g11
sS'trials.thisIndex'
p1810
g35
(g60
S'l\x00\x00\x00'
tRp1811
sg25
Nsg53
V./greyInner/JoachimLoew4_1_cut.png
p1812
sg34
g38
sg24
F0.88
sg52
g35
(g63
S'm\x00\x00\x00\x00\x00\x00\x00'
tRp1813
sg32
g33
sg26
S''
sg28
(lp1814
F0.1504327976708737
asS'trials.thisN'
p1815
I152
sg40
g41
sg16
g67
sg17
F1.528
sg27
(lp1816
S'return'
p1817
asS'trials.thisRepN'
p1818
I0
sg42
g43
sg22
Nsg19
NsS'trials.thisTrialN'
p1819
I152
sg23
g136
sg21
Nsg18
Nsa(dp1820
g20
F0.70599999999999996
sg39
g11
sS'trials.thisIndex'
p1821
g35
(g60
S'\xa5\x00\x00\x00'
tRp1822
sg25
Nsg53
V./greyInner/RobertSeanLeonard(Wilson)1_1_cut.png
p1823
sg34
g38
sg24
Nsg52
g35
(g63
S'\xa6\x00\x00\x00\x00\x00\x00\x00'
tRp1824
sg32
g33
sg26
S'patrik'
p1825
sg28
(lp1826
F9.9300116892591177
aF10.112854591274299
aF10.6128555536161
aF10.763194041686802
aF10.896293119376423
aF11.129484517827223
aF11.86208760399677
asS'trials.thisN'
p1827
I153
sg40
g41
sg16
g80
sg17
F1.734
sg27
(lp1828
S'p'
aS'a'
aS't'
aS'r'
aS'i'
aS'k'
aS'return'
p1829
asS'trials.thisRepN'
p1830
I0
sg42
g43
sg22
Nsg19
g71
sS'trials.thisTrialN'
p1831
I153
sg23
Nsg21
Nsg18
Nsa(dp1832
g20
Nsg39
g11
sS'trials.thisIndex'
p1833
g35
(g60
S'U\x00\x00\x00'
tRp1834
sg25
Nsg53
V./greyInner/Ice-T(OdafinFinTutuola)10_1_cut.png
p1835
sg34
g38
sg24
F6.9279999999999999
sg52
g35
(g63
S'V\x00\x00\x00\x00\x00\x00\x00'
tRp1836
sg32
g33
sg26
S''
sg28
(lp1837
F0.25019952575712523
asS'trials.thisN'
p1838
I154
sg40
g41
sg16
g67
sg17
F2.0139999999999998
sg27
(lp1839
S'return'
p1840
asS'trials.thisRepN'
p1841
I0
sg42
g43
sg22
Nsg19
NsS'trials.thisTrialN'
p1842
I154
sg23
g136
sg21
Nsg18
Nsa(dp1843
g20
Nsg39
g11
sS'trials.thisIndex'
p1844
g35
(g60
S'\xce\x00\x00\x00'
tRp1845
sg25
Nsg53
V./greyInner/WillSmith14_1_cut.png
p1846
sg34
g38
sg24
Nsg52
g35
(g63
S'\xcf\x00\x00\x00\x00\x00\x00\x00'
tRp1847
sg32
g33
sg26
S''
sg28
(lp1848
F0.61721849545938312
asS'trials.thisN'
p1849
I155
sg40
g41
sg16
g67
sg17
F1.611
sg27
(lp1850
S'return'
p1851
asS'trials.thisRepN'
p1852
I0
sg42
g43
sg22
F2.5089999999999999
sg19
NsS'trials.thisTrialN'
p1853
I155
sg23
Nsg21
g85
sg18
Nsa(dp1854
g20
F1.8109999999999999
sg39
g11
sS'trials.thisIndex'
p1855
g35
(g60
S'\xa8\x00\x00\x00'
tRp1856
sg25
Nsg53
V./greyInner/RobertSeanLeonard(Wilson)2_6_cut.png
p1857
sg34
g38
sg24
Nsg52
g35
(g63
S'\xa9\x00\x00\x00\x00\x00\x00\x00'
tRp1858
sg32
g33
sg26
S'patrik'
p1859
sg28
(lp1860
F1.7828043441440968
aF1.9494818104358274
aF2.3663912013635127
aF2.5497730153911107
aF2.6830831669540203
aF2.8656835585643421
aF3.4495135677516373
asS'trials.thisN'
p1861
I156
sg40
g41
sg16
g80
sg17
F2.1419999999999999
sg27
(lp1862
S'p'
aS'a'
aS't'
aS'r'
aS'i'
aS'k'
aS'return'
p1863
asS'trials.thisRepN'
p1864
I0
sg42
g43
sg22
Nsg19
g216
sS'trials.thisTrialN'
p1865
I156
sg23
Nsg21
Nsg18
Nsa(dp1866
g20
F0.90600000000000003
sg39
g11
sS'trials.thisIndex'
p1867
g35
(g60
S'n\x00\x00\x00'
tRp1868
sg25
Nsg53
V./greyInner/JoshRadnor(Ted)1_2_cut.png
p1869
sg34
g38
sg24
Nsg52
g35
(g63
S'o\x00\x00\x00\x00\x00\x00\x00'
tRp1870
sg32
g33
sg26
S''
sg28
(lp1871
F0.54974350354495982
asS'trials.thisN'
p1872
I157
sg40
g41
sg16
g80
sg17
F2.2970000000000002
sg27
(lp1873
S'return'
p1874
asS'trials.thisRepN'
p1875
I0
sg42
g43
sg22
Nsg19
g71
sS'trials.thisTrialN'
p1876
I157
sg23
Nsg21
Nsg18
Nsa(dp1877
g20
Nsg39
g11
sS'trials.thisIndex'
p1878
g35
(g60
S'\xd2\x00\x00\x00'
tRp1879
sg25
Nsg53
V./greyInner/notfamousface10_4_cut.png
p1880
sg34
g38
sg24
Nsg52
g35
(g63
S'\xd3\x00\x00\x00\x00\x00\x00\x00'
tRp1881
sg32
g33
sg26
S''
sg28
(lp1882
F0.13338296884103329
asS'trials.thisN'
p1883
I158
sg40
g41
sg16
g67
sg17
F1.256
sg27
(lp1884
S'return'
p1885
asS'trials.thisRepN'
p1886
I0
sg42
g43
sg22
F3.4700000000000002
sg19
NsS'trials.thisTrialN'
p1887
I158
sg23
Nsg21
g273
sg18
Nsa(dp1888
g20
Nsg39
g11
sS'trials.thisIndex'
p1889
g35
(g60
S')\x00\x00\x00'
tRp1890
sg25
Nsg53
V./greyInner/CobieSmulders(Robin)2_1_cut.png
p1891
sg34
g38
sg24
Nsg52
g35
(g63
S'*\x00\x00\x00\x00\x00\x00\x00'
tRp1892
sg32
g33
sg26
S''
sg28
(lp1893
F0.13277829672915686
asS'trials.thisN'
p1894
I159
sg40
g41
sg16
g67
sg17
F2.0960000000000001
sg27
(lp1895
S'return'
p1896
asS'trials.thisRepN'
p1897
I0
sg42
g43
sg22
F0.78000000000000003
sg19
NsS'trials.thisTrialN'
p1898
I159
sg23
Nsg21
g85
sg18
Nsa(dp1899
g20
Nsg39
g11
sS'trials.thisIndex'
p1900
g35
(g60
S'\xa0\x00\x00\x00'
tRp1901
sg25
Nsg53
V./greyInner/OmarEpps(DrEricForeman)1_5_cut.png
p1902
sg34
g38
sg24
Nsg52
g35
(g63
S'\xa1\x00\x00\x00\x00\x00\x00\x00'
tRp1903
sg32
g33
sg26
S'rep'
p1904
sg28
(lp1905
F2.6157749811372923
aF2.7829102018604317
aF3.1321325646549667
aF5.2646875978371099
asS'trials.thisN'
p1906
I160
sg40
g41
sg16
g80
sg17
F2.4039999999999999
sg27
(lp1907
S'r'
aS'e'
aS'p'
aS'return'
p1908
asS'trials.thisRepN'
p1909
I0
sg42
g43
sg22
F1.363
sg19
NsS'trials.thisTrialN'
p1910
I160
sg23
Nsg21
g85
sg18
Nsa(dp1911
g20
Nsg39
g11
sS'trials.thisIndex'
p1912
g35
(g60
S'\x8e\x00\x00\x00'
tRp1913
sg25
Nsg53
V./greyInner/MariskaHargitay(Liv)4_4_cut.png
p1914
sg34
g38
sg24
F1.728
sg52
g35
(g63
S'\x8f\x00\x00\x00\x00\x00\x00\x00'
tRp1915
sg32
g33
sg26
S''
sg28
(lp1916
F0.16684523473486479
asS'trials.thisN'
p1917
I161
sg40
g41
sg16
g67
sg17
F1.8129999999999999
sg27
(lp1918
S'return'
p1919
asS'trials.thisRepN'
p1920
I0
sg42
g43
sg22
Nsg19
NsS'trials.thisTrialN'
p1921
I161
sg23
g110
sg21
Nsg18
Nsa(dp1922
g20
F0.58099999999999996
sg39
g11
sS'trials.thisIndex'
p1923
g35
(g60
S'\xbe\x00\x00\x00'
tRp1924
sg25
Nsg53
V./greyInner/TomCruise1_1_cut.png
p1925
sg34
g38
sg24
Nsg52
g35
(g63
S'\xbf\x00\x00\x00\x00\x00\x00\x00'
tRp1926
sg32
g33
sg26
S''
sg28
(lp1927
F1.5162417815918161
asS'trials.thisN'
p1928
I162
sg40
g41
sg16
g80
sg17
F4.4630000000000001
sg27
(lp1929
S'return'
p1930
asS'trials.thisRepN'
p1931
I0
sg42
g43
sg22
Nsg19
g216
sS'trials.thisTrialN'
p1932
I162
sg23
Nsg21
Nsg18
Nsa(dp1933
g20
Nsg39
g11
sS'trials.thisIndex'
p1934
g35
(g60
S'\xc5\x00\x00\x00'
tRp1935
sg25
Nsg53
V./greyInner/UrsulavonderLeyen5_1_cut.png
p1936
sg34
g38
sg24
F0.97799999999999998
sg52
g35
(g63
S'\xc6\x00\x00\x00\x00\x00\x00\x00'
tRp1937
sg32
g33
sg26
S''
sg28
(lp1938
F0.18331733705599618
asS'trials.thisN'
p1939
I163
sg40
g41
sg16
g67
sg17
F1.228
sg27
(lp1940
S'return'
p1941
asS'trials.thisRepN'
p1942
I0
sg42
g43
sg22
Nsg19
NsS'trials.thisTrialN'
p1943
I163
sg23
g136
sg21
Nsg18
Nsa(dp1944
g20
F2.5299999999999998
sg39
g11
sS'trials.thisIndex'
p1945
g35
(g60
S'\xa9\x00\x00\x00'
tRp1946
sg25
Nsg53
V./greyInner/RobertSeanLeonard(Wilson)8_1_cut.png
p1947
sg34
g38
sg24
Nsg52
g35
(g63
S'\xaa\x00\x00\x00\x00\x00\x00\x00'
tRp1948
sg32
g33
sg26
S''
sg28
(lp1949
F0.38346284329963964
asS'trials.thisN'
p1950
I164
sg40
g41
sg16
g80
sg17
F3.4100000000000001
sg27
(lp1951
S'return'
p1952
asS'trials.thisRepN'
p1953
I0
sg42
g43
sg22
Nsg19
g216
sS'trials.thisTrialN'
p1954
I164
sg23
Nsg21
Nsg18
Nsa(dp1955
g20
Nsg39
g11
sS'trials.thisIndex'
p1956
g35
(g60
S'6\x00\x00\x00'
tRp1957
sg25
Nsg53
V./greyInner/DannFlorek(DonaldDonCragen)8_1_cut.png
p1958
sg34
g38
sg24
F0.72399999999999998
sg52
g35
(g63
S'7\x00\x00\x00\x00\x00\x00\x00'
tRp1959
sg32
g33
sg26
S''
sg28
(lp1960
F0.18346072614440345
asS'trials.thisN'
p1961
I165
sg40
g41
sg16
g67
sg17
F1.222
sg27
(lp1962
S'return'
p1963
asS'trials.thisRepN'
p1964
I0
sg42
g43
sg22
Nsg19
NsS'trials.thisTrialN'
p1965
I165
sg23
g136
sg21
Nsg18
Nsa(dp1966
g20
Nsg39
g11
sS'trials.thisIndex'
p1967
g35
(g60
S'\xd8\x00\x00\x00'
tRp1968
sg25
Nsg53
V./greyInner/notfamousface2_cut.png
p1969
sg34
g38
sg24
Nsg52
g35
(g63
S'\xd9\x00\x00\x00\x00\x00\x00\x00'
tRp1970
sg32
g33
sg26
S''
sg28
(lp1971
F0.13394080693069554
asS'trials.thisN'
p1972
I166
sg40
g41
sg16
g67
sg17
F3.024
sg27
(lp1973
S'return'
p1974
asS'trials.thisRepN'
p1975
I0
sg42
g43
sg22
F13.503
sg19
NsS'trials.thisTrialN'
p1976
I166
sg23
Nsg21
g85
sg18
Nsa(dp1977
g20
Nsg39
g11
sS'trials.thisIndex'
p1978
g35
(g60
S'\x1e\x00\x00\x00'
tRp1979
sg25
Nsg53
V./greyInner/BritneySpears1_1_cut.png
p1980
sg34
g38
sg24
Nsg52
g35
(g63
S'\x1f\x00\x00\x00\x00\x00\x00\x00'
tRp1981
sg32
g33
sg26
S''
sg28
(lp1982
F0.21689091394364368
asS'trials.thisN'
p1983
I167
sg40
g41
sg16
g67
sg17
F2.242
sg27
(lp1984
S'return'
p1985
asS'trials.thisRepN'
p1986
I0
sg42
g43
sg22
F18.268999999999998
sg19
NsS'trials.thisTrialN'
p1987
I167
sg23
Nsg21
g85
sg18
Nsa(dp1988
g20
Nsg39
g11
sS'trials.thisIndex'
p1989
g35
(g60
S'\xba\x00\x00\x00'
tRp1990
sg25
Nsg53
V./greyInner/TaylorSwift2_1_cut.png
p1991
sg34
g38
sg24
F3.0739999999999998
sg52
g35
(g63
S'\xbb\x00\x00\x00\x00\x00\x00\x00'
tRp1992
sg32
g33
sg26
S''
sg28
(lp1993
F0.23358275122336636
asS'trials.thisN'
p1994
I168
sg40
g41
sg16
g67
sg17
F1.5269999999999999
sg27
(lp1995
S'return'
p1996
asS'trials.thisRepN'
p1997
I0
sg42
g43
sg22
Nsg19
NsS'trials.thisTrialN'
p1998
I168
sg23
g110
sg21
Nsg18
Nsa(dp1999
g20
Nsg39
g11
sS'trials.thisIndex'
p2000
g35
(g60
S'1\x00\x00\x00'
tRp2001
sg25
Nsg53
V./greyInner/CristinMilioti(Tracy_Mutter)9_1_cut.png
p2002
sg34
g38
sg24
F1.1359999999999999
sg52
g35
(g63
S'2\x00\x00\x00\x00\x00\x00\x00'
tRp2003
sg32
g33
sg26
S''
sg28
(lp2004
F0.083694960401771823
asS'trials.thisN'
p2005
I169
sg40
g41
sg16
g67
sg17
F1.9350000000000001
sg27
(lp2006
S'return'
p2007
asS'trials.thisRepN'
p2008
I0
sg42
g43
sg22
Nsg19
NsS'trials.thisTrialN'
p2009
I169
sg23
g110
sg21
Nsg18
Nsa(dp2010
g20
F4.149
sg39
g11
sS'trials.thisIndex'
p2011
g35
(g60
S'\x01\x00\x00\x00'
tRp2012
sg25
Nsg53
V./greyInner/AlysonHannigan(Lily)12_2_cut.png
p2013
sg34
g38
sg24
Nsg52
g35
(g63
S'\x02\x00\x00\x00\x00\x00\x00\x00'
tRp2014
sg32
g33
sg26
S''
sg28
(lp2015
F0.43372120028652716
asS'trials.thisN'
p2016
I170
sg40
g41
sg16
g80
sg17
F2.5310000000000001
sg27
(lp2017
S'return'
p2018
asS'trials.thisRepN'
p2019
I0
sg42
g43
sg22
Nsg19
g71
sS'trials.thisTrialN'
p2020
I170
sg23
Nsg21
Nsg18
Nsa(dp2021
g20
Nsg39
g11
sS'trials.thisIndex'
p2022
g35
(g60
S'\xbc\x00\x00\x00'
tRp2023
sg25
Nsg53
V./greyInner/TaylorSwift7_1_cut.png
p2024
sg34
g38
sg24
F4.7290000000000001
sg52
g35
(g63
S'\xbd\x00\x00\x00\x00\x00\x00\x00'
tRp2025
sg32
g33
sg26
S''
sg28
(lp2026
F0.53357518079246802
asS'trials.thisN'
p2027
I171
sg40
g41
sg16
g67
sg17
F1.498
sg27
(lp2028
S'return'
p2029
asS'trials.thisRepN'
p2030
I0
sg42
g43
sg22
Nsg19
NsS'trials.thisTrialN'
p2031
I171
sg23
g110
sg21
Nsg18
Nsa(dp2032
g20
Nsg39
g11
sS'trials.thisIndex'
p2033
g35
(g60
S'\xb5\x00\x00\x00'
tRp2034
sg25
Nsg53
V./greyInner/SigmarGabriel11_3_cut.png
p2035
sg34
g38
sg24
F1.4850000000000001
sg52
g35
(g63
S'\xb6\x00\x00\x00\x00\x00\x00\x00'
tRp2036
sg32
g33
sg26
S''
sg28
(lp2037
F0.033655376031674678
asS'trials.thisN'
p2038
I172
sg40
g41
sg16
g67
sg17
F1.8740000000000001
sg27
(lp2039
S'return'
p2040
asS'trials.thisRepN'
p2041
I0
sg42
g43
sg22
Nsg19
NsS'trials.thisTrialN'
p2042
I172
sg23
g136
sg21
Nsg18
Nsa(dp2043
g20
Nsg39
g11
sS'trials.thisIndex'
p2044
g35
(g60
S'O\x00\x00\x00'
tRp2045
sg25
Nsg53
V./greyInner/GeorgeClooney4_2_cut.png
p2046
sg34
g38
sg24
Nsg52
g35
(g63
S'P\x00\x00\x00\x00\x00\x00\x00'
tRp2047
sg32
g33
sg26
S''
sg28
(lp2048
F0.81669036168750608
asS'trials.thisN'
p2049
I173
sg40
g41
sg16
g80
sg17
F2.7160000000000002
sg27
(lp2050
S'return'
p2051
asS'trials.thisRepN'
p2052
I0
sg42
g43
sg22
F1.1000000000000001
sg19
NsS'trials.thisTrialN'
p2053
I173
sg23
Nsg21
g273
sg18
Nsa(dp2054
g20
Nsg39
g11
sS'trials.thisIndex'
p2055
g35
(g60
S'j\x00\x00\x00'
tRp2056
sg25
Nsg53
V./greyInner/JoachimLoew12_1_cut.png
p2057
sg34
g38
sg24
Nsg52
g35
(g63
S'k\x00\x00\x00\x00\x00\x00\x00'
tRp2058
sg32
g33
sg26
S''
sg28
(lp2059
F0.6003508702142426
asS'trials.thisN'
p2060
I174
sg40
g41
sg16
g67
sg17
F1.53
sg27
(lp2061
S'return'
p2062
asS'trials.thisRepN'
p2063
I0
sg42
g43
sg22
F9.6929999999999996
sg19
NsS'trials.thisTrialN'
p2064
I174
sg23
Nsg21
g85
sg18
Nsa(dp2065
g20
Nsg39
g11
sS'trials.thisIndex'
p2066
g35
(g60
S'8\x00\x00\x00'
tRp2067
sg25
Nsg53
V./greyInner/ElvisPresley2_1_cut.png
p2068
sg34
g38
sg24
Nsg52
g35
(g63
S'9\x00\x00\x00\x00\x00\x00\x00'
tRp2069
sg32
g33
sg26
S''
sg28
(lp2070
F0.23368411800765898
asS'trials.thisN'
p2071
I175
sg40
g41
sg16
g67
sg17
F13.472
sg27
(lp2072
S'return'
p2073
asS'trials.thisRepN'
p2074
I0
sg42
g43
sg22
F2.077
sg19
NsS'trials.thisTrialN'
p2075
I175
sg23
Nsg21
g85
sg18
Nsa(dp2076
g20
F0.64600000000000002
sg39
g11
sS'trials.thisIndex'
p2077
g35
(g60
S'p\x00\x00\x00'
tRp2078
sg25
Nsg53
V./greyInner/JoshRadnor(Ted)6_2_cut.png
p2079
sg34
g38
sg24
Nsg52
g35
(g63
S'q\x00\x00\x00\x00\x00\x00\x00'
tRp2080
sg32
g33
sg26
S''
sg28
(lp2081
F0.50026464429356565
asS'trials.thisN'
p2082
I176
sg40
g41
sg16
g80
sg17
F1.863
sg27
(lp2083
S'return'
p2084
asS'trials.thisRepN'
p2085
I0
sg42
g43
sg22
Nsg19
g71
sS'trials.thisTrialN'
p2086
I176
sg23
Nsg21
Nsg18
Nsa(dp2087
g20
Nsg39
g11
sS'trials.thisIndex'
p2088
g35
(g60
S'V\x00\x00\x00'
tRp2089
sg25
Nsg53
V./greyInner/Ice-T(OdafinFinTutuola)12_1_cut.png
p2090
sg34
g38
sg24
F2.246
sg52
g35
(g63
S'W\x00\x00\x00\x00\x00\x00\x00'
tRp2091
sg32
g33
sg26
S'schwarzneger'
p2092
sg28
(lp2093
F10.229904676729348
aF10.446444656301537
aF10.796357339724636
aF11.562512189675545
aF11.795700380316703
aF12.062374253862799
aF12.34568094099086
aF13.661578652923708
aF14.711337874736273
aF15.011097096547019
aF15.344328207680519
aF15.527677622832925
aF16.077569647961354
asS'trials.thisN'
p2094
I177
sg40
g41
sg16
g80
sg17
F4.0949999999999998
sg27
(lp2095
S's'
aS'c'
aS'h'
aS'w'
aS'a'
aS'r'
aS'z'
aS'n'
aS'e'
aS'g'
aS'e'
aS'r'
aS'return'
p2096
asS'trials.thisRepN'
p2097
I0
sg42
g43
sg22
Nsg19
NsS'trials.thisTrialN'
p2098
I177
sg23
g136
sg21
Nsg18
Nsa(dp2099
g20
Nsg39
g11
sS'trials.thisIndex'
p2100
g35
(g60
S'\xc4\x00\x00\x00'
tRp2101
sg25
Nsg53
V./greyInner/UrsulavonderLeyen4_1_cut.png
p2102
sg34
g38
sg24
F0.81299999999999994
sg52
g35
(g63
S'\xc5\x00\x00\x00\x00\x00\x00\x00'
tRp2103
sg32
g33
sg26
S''
sg28
(lp2104
F0.56709871585007932
asS'trials.thisN'
p2105
I178
sg40
g41
sg16
g67
sg17
F17.222999999999999
sg27
(lp2106
S'return'
p2107
asS'trials.thisRepN'
p2108
I0
sg42
g43
sg22
Nsg19
NsS'trials.thisTrialN'
p2109
I178
sg23
g136
sg21
Nsg18
Nsa(dp2110
g20
Nsg39
g11
sS'trials.thisIndex'
p2111
g35
(g60
S'\x0c\x00\x00\x00'
tRp2112
sg25
Nsg53
V./greyInner/BarackObama2_1_cut.png
p2113
sg34
g38
sg24
F1.5029999999999999
sg52
g35
(g63
S'\r\x00\x00\x00\x00\x00\x00\x00'
tRp2114
sg32
g33
sg26
S'obama'
p2115
sg28
(lp2116
F1.2500664016588416
aF1.6332302771024843
aF2.099827676467612
aF2.216470370103707
aF2.2831158224562387
aF2.8327361461106193
asS'trials.thisN'
p2117
I179
sg40
g41
sg16
g80
sg17
F1.8480000000000001
sg27
(lp2118
S'o'
aS'b'
aS'a'
aS'm'
aS'a'
aS'return'
p2119
asS'trials.thisRepN'
p2120
I0
sg42
g43
sg22
Nsg19
NsS'trials.thisTrialN'
p2121
I179
sg23
g136
sg21
Nsg18
Nsa(dp2122
g20
Nsg39
g11
sS'trials.thisIndex'
p2123
g35
(g60
S'\xa4\x00\x00\x00'
tRp2124
sg25
Nsg53
V./greyInner/OmarEpps(DrEricForeman)9_1_cut.png
p2125
sg34
g38
sg24
Nsg52
g35
(g63
S'\xa5\x00\x00\x00\x00\x00\x00\x00'
tRp2126
sg32
g33
sg26
S''
sg28
(lp2127
F0.31722799057570228
asS'trials.thisN'
p2128
I180
sg40
g41
sg16
g80
sg17
F2.3130000000000002
sg27
(lp2129
S'return'
p2130
asS'trials.thisRepN'
p2131
I0
sg42
g43
sg22
F0.92900000000000005
sg19
NsS'trials.thisTrialN'
p2132
I180
sg23
Nsg21
g85
sg18
Nsa(dp2133
g20
F88.049999999999997
sg39
g11
sS'trials.thisIndex'
p2134
g35
(g60
S'P\x00\x00\x00'
tRp2135
sg25
Nsg53
V./greyInner/HughLaurie(DrHouse)2_1_cut.png
p2136
sg34
g38
sg24
Nsg52
g35
(g63
S'Q\x00\x00\x00\x00\x00\x00\x00'
tRp2137
sg32
g33
sg26
S'chyu lori'
p2138
sg28
(lp2139
F1.9660405236172664
aF3.0658133465403807
aF4.8317920877452707
aF4.9149959324968222
aF5.5481344662457559
aF6.3811156890114944
aF6.56446317947848
aF7.0476568233953003
aF7.1142265714406676
aF7.7973042851208447
asS'trials.thisN'
p2140
I181
sg40
g41
sg16
g80
sg17
F1.2829999999999999
sg27
(lp2141
S'c'
aS'h'
aS'y'
aS'u'
aS'space'
p2142
aS'l'
aS'o'
aS'r'
aS'i'
aS'return'
p2143
asS'trials.thisRepN'
p2144
I0
sg42
g43
sg22
Nsg19
g71
sS'trials.thisTrialN'
p2145
I181
sg23
Nsg21
Nsg18
Nsa(dp2146
g20
Nsg39
g11
sS'trials.thisIndex'
p2147
g35
(g60
S'\x1b\x00\x00\x00'
tRp2148
sg25
Nsg53
V./greyInner/Beyonce3_2_cut.png
p2149
sg34
g38
sg24
Nsg52
g35
(g63
S'\x1c\x00\x00\x00\x00\x00\x00\x00'
tRp2150
sg32
g33
sg26
S''
sg28
(lp2151
F0.53464306060959643
asS'trials.thisN'
p2152
I182
sg40
g41
sg16
g67
sg17
F4.827
sg27
(lp2153
S'return'
p2154
asS'trials.thisRepN'
p2155
I0
sg42
g43
sg22
F0.74299999999999999
sg19
NsS'trials.thisTrialN'
p2156
I182
sg23
Nsg21
g85
sg18
Nsa(dp2157
g20
Nsg39
g11
sS'trials.thisIndex'
p2158
g35
(g60
S'\x7f\x00\x00\x00'
tRp2159
sg25
Nsg53
V./greyInner/KatjaBurkard4_1_cut.png
p2160
sg34
g38
sg24
F0.91800000000000004
sg52
g35
(g63
S'\x80\x00\x00\x00\x00\x00\x00\x00'
tRp2161
sg32
g33
sg26
S''
sg28
(lp2162
F0.050730225779261673
asS'trials.thisN'
p2163
I183
sg40
g41
sg16
g67
sg17
F1.9179999999999999
sg27
(lp2164
S'return'
p2165
asS'trials.thisRepN'
p2166
I0
sg42
g43
sg22
Nsg19
NsS'trials.thisTrialN'
p2167
I183
sg23
g136
sg21
Nsg18
Nsa(dp2168
g20
Nsg39
g11
sS'trials.thisIndex'
p2169
g35
(g60
S'=\x00\x00\x00'
tRp2170
sg25
Nsg53
V./greyInner/EmilyDeschanel3_1_cut.png
p2171
sg34
g38
sg24
Nsg52
g35
(g63
S'>\x00\x00\x00\x00\x00\x00\x00'
tRp2172
sg32
g33
sg26
S''
sg28
(lp2173
F0.30052813377369603
asS'trials.thisN'
p2174
I184
sg40
g41
sg16
g67
sg17
F2.4510000000000001
sg27
(lp2175
S'return'
p2176
asS'trials.thisRepN'
p2177
I0
sg42
g43
sg22
F0.58899999999999997
sg19
NsS'trials.thisTrialN'
p2178
I184
sg23
Nsg21
g85
sg18
Nsa(dp2179
g20
Nsg39
g11
sS'trials.thisIndex'
p2180
g35
(g60
S'\x8b\x00\x00\x00'
tRp2181
sg25
Nsg53
V./greyInner/LisaEdelstein(DrLisaCuddy)9_1_cut.png
p2182
sg34
g38
sg24
Nsg52
g35
(g63
S'\x8c\x00\x00\x00\x00\x00\x00\x00'
tRp2183
sg32
g33
sg26
S'brasil'
p2184
sg28
(lp2185
F0.88335730636390508
aF1.3999782510509249
aF2.132759370651911
aF2.3327935659035575
aF2.7327747039835231
aF2.9820747599260358
aF3.5324527682114422
asS'trials.thisN'
p2186
I185
sg40
g41
sg16
g67
sg17
F1.712
sg27
(lp2187
S'b'
aS'r'
aS'a'
aS's'
aS'i'
aS'l'
aS'return'
p2188
asS'trials.thisRepN'
p2189
I0
sg42
g43
sg22
F1.829
sg19
NsS'trials.thisTrialN'
p2190
I185
sg23
Nsg21
g85
sg18
Nsa(dp2191
g20
F1.177
sg39
g11
sS'trials.thisIndex'
p2192
g35
(g60
S'<\x00\x00\x00'
tRp2193
sg25
Nsg53
V./greyInner/EmilyDeschanel15_1_cut.png
p2194
sg34
g38
sg24
Nsg52
g35
(g63
S'=\x00\x00\x00\x00\x00\x00\x00'
tRp2195
sg32
g33
sg26
S''
sg28
(lp2196
F0.2501825243653002
asS'trials.thisN'
p2197
I186
sg40
g41
sg16
g67
sg17
F3.0600000000000001
sg27
(lp2198
S'return'
p2199
asS'trials.thisRepN'
p2200
I0
sg42
g43
sg22
Nsg19
g71
sS'trials.thisTrialN'
p2201
I186
sg23
Nsg21
Nsg18
Nsa(dp2202
g20
Nsg39
g11
sS'trials.thisIndex'
p2203
g35
(g60
S'&\x00\x00\x00'
tRp2204
sg25
Nsg53
V./greyInner/CarenMiosga6_2_cut.png
p2205
sg34
g38
sg24
F0.79600000000000004
sg52
g35
(g63
S"'\x00\x00\x00\x00\x00\x00\x00"
tRp2206
sg32
g33
sg26
S''
sg28
(lp2207
F0.15037730256517534
asS'trials.thisN'
p2208
I187
sg40
g41
sg16
g67
sg17
F1.079
sg27
(lp2209
S'return'
p2210
asS'trials.thisRepN'
p2211
I0
sg42
g43
sg22
Nsg19
NsS'trials.thisTrialN'
p2212
I187
sg23
g110
sg21
Nsg18
Nsa(dp2213
g20
F0.63
sg39
g11
sS'trials.thisIndex'
p2214
g35
(g60
S'r\x00\x00\x00'
tRp2215
sg25
Nsg53
V./greyInner/JoshRadnor(Ted)9_1_cut.png
p2216
sg34
g38
sg24
Nsg52
g35
(g63
S's\x00\x00\x00\x00\x00\x00\x00'
tRp2217
sg32
g33
sg26
S''
sg28
(lp2218
F2.8828896077247919
asS'trials.thisN'
p2219
I188
sg40
g41
sg16
g80
sg17
F1.73
sg27
(lp2220
S'return'
p2221
asS'trials.thisRepN'
p2222
I0
sg42
g43
sg22
Nsg19
g71
sS'trials.thisTrialN'
p2223
I188
sg23
Nsg21
Nsg18
Nsa(dp2224
g20
F5.6399999999999997
sg39
g11
sS'trials.thisIndex'
p2225
g35
(g60
S'\x95\x00\x00\x00'
tRp2226
sg25
Nsg53
V./greyInner/MilaKunis7_3_cut.png
p2227
sg34
g38
sg24
Nsg52
g35
(g63
S'\x96\x00\x00\x00\x00\x00\x00\x00'
tRp2228
sg32
g33
sg26
S''
sg28
(lp2229
F0.51692119566723704
asS'trials.thisN'
p2230
I189
sg40
g41
sg16
g67
sg17
F1.974
sg27
(lp2231
S'return'
p2232
asS'trials.thisRepN'
p2233
I0
sg42
g43
sg22
Nsg19
g216
sS'trials.thisTrialN'
p2234
I189
sg23
Nsg21
Nsg18
Nsa(dp2235
g20
F0.47699999999999998
sg39
g11
sS'trials.thisIndex'
p2236
g35
(g60
S'g\x00\x00\x00'
tRp2237
sg25
Nsg53
V./greyInner/JimParsons(SheldonCooper)8_1_cut.png
p2238
sg34
g38
sg24
Nsg52
g35
(g63
S'h\x00\x00\x00\x00\x00\x00\x00'
tRp2239
sg32
g33
sg26
S''
sg28
(lp2240
F0.36712354429619154
asS'trials.thisN'
p2241
I190
sg40
g41
sg16
g80
sg17
F1.5760000000000001
sg27
(lp2242
S'return'
p2243
asS'trials.thisRepN'
p2244
I0
sg42
g43
sg22
Nsg19
g216
sS'trials.thisTrialN'
p2245
I190
sg23
Nsg21
Nsg18
Nsa(dp2246
g20
Nsg39
g11
sS'trials.thisIndex'
p2247
g35
(g60
S'L\x00\x00\x00'
tRp2248
sg25
Nsg53
V./greyInner/GeorgeClooney15_1_cut.png
p2249
sg34
g38
sg24
Nsg52
g35
(g63
S'M\x00\x00\x00\x00\x00\x00\x00'
tRp2250
sg32
g33
sg26
S''
sg28
(lp2251
F0.25035799155193672
asS'trials.thisN'
p2252
I191
sg40
g41
sg16
g80
sg17
F1.8919999999999999
sg27
(lp2253
S'return'
p2254
asS'trials.thisRepN'
p2255
I0
sg42
g43
sg22
F0.54100000000000004
sg19
NsS'trials.thisTrialN'
p2256
I191
sg23
Nsg21
g273
sg18
Nsa(dp2257
g20
Nsg39
g11
sS'trials.thisIndex'
p2258
g35
(g60
S'\xb3\x00\x00\x00'
tRp2259
sg25
Nsg53
V./greyInner/Shakira9_1_cut.png
p2260
sg34
g38
sg24
Nsg52
g35
(g63
S'\xb4\x00\x00\x00\x00\x00\x00\x00'
tRp2261
sg32
g33
sg26
S''
sg28
(lp2262
F0.23393913887048257
asS'trials.thisN'
p2263
I192
sg40
g41
sg16
g67
sg17
F1.877
sg27
(lp2264
S'return'
p2265
asS'trials.thisRepN'
p2266
I0
sg42
g43
sg22
F1.1100000000000001
sg19
NsS'trials.thisTrialN'
p2267
I192
sg23
Nsg21
g85
sg18
Nsa(dp2268
g20
Nsg39
g11
sS'trials.thisIndex'
p2269
g35
(g60
S'v\x00\x00\x00'
tRp2270
sg25
Nsg53
V./greyInner/JudithRakers7_1_cut.png
p2271
sg34
g38
sg24
F1.345
sg52
g35
(g63
S'w\x00\x00\x00\x00\x00\x00\x00'
tRp2272
sg32
g33
sg26
S''
sg28
(lp2273
F0.11739717045566067
asS'trials.thisN'
p2274
I193
sg40
g41
sg16
g67
sg17
F2.0449999999999999
sg27
(lp2275
S'return'
p2276
asS'trials.thisRepN'
p2277
I0
sg42
g43
sg22
Nsg19
NsS'trials.thisTrialN'
p2278
I193
sg23
g110
sg21
Nsg18
Nsa(dp2279
g20
F0.68700000000000006
sg39
g11
sS'trials.thisIndex'
p2280
g35
(g60
S'\x86\x00\x00\x00'
tRp2281
sg25
Nsg53
V./greyInner/LeonardoDiCaprio7_1_cut.png
p2282
sg34
g38
sg24
Nsg52
g35
(g63
S'\x87\x00\x00\x00\x00\x00\x00\x00'
tRp2283
sg32
g33
sg26
S''
sg28
(lp2284
F0.23357954341372533
asS'trials.thisN'
p2285
I194
sg40
g41
sg16
g80
sg17
F3.9529999999999998
sg27
(lp2286
S'return'
p2287
asS'trials.thisRepN'
p2288
I0
sg42
g43
sg22
Nsg19
g71
sS'trials.thisTrialN'
p2289
I194
sg23
Nsg21
Nsg18
Nsa(dp2290
g20
Nsg39
g11
sS'trials.thisIndex'
p2291
g35
(g60
S'\x94\x00\x00\x00'
tRp2292
sg25
Nsg53
V./greyInner/MilaKunis5_2_cut.png
p2293
sg34
g38
sg24
Nsg52
g35
(g63
S'\x95\x00\x00\x00\x00\x00\x00\x00'
tRp2294
sg32
g33
sg26
S''
sg28
(lp2295
F0.21707151362534205
asS'trials.thisN'
p2296
I195
sg40
g41
sg16
g67
sg17
F1.1259999999999999
sg27
(lp2297
S'return'
p2298
asS'trials.thisRepN'
p2299
I0
sg42
g43
sg22
F5.492
sg19
NsS'trials.thisTrialN'
p2300
I195
sg23
Nsg21
g85
sg18
Nsa(dp2301
g20
Nsg39
g11
sS'trials.thisIndex'
p2302
g35
(g60
S'\x06\x00\x00\x00'
tRp2303
sg25
Nsg53
V./greyInner/AngelaMerkel3_1_cut.png
p2304
sg34
g38
sg24
F1.371
sg52
g35
(g63
S'\x07\x00\x00\x00\x00\x00\x00\x00'
tRp2305
sg32
g33
sg26
S'merkel'
p2306
sg28
(lp2307
F0.73335627986489271
aF1.3996683766417846
aF1.5330766871793458
aF1.8994919471133471
aF2.282806589610118
aF2.6323410722798144
aF3.4822454153982108
asS'trials.thisN'
p2308
I196
sg40
g41
sg16
g80
sg17
F3.3519999999999999
sg27
(lp2309
S'm'
aS'e'
aS'r'
aS'k'
aS'e'
aS'l'
aS'return'
p2310
asS'trials.thisRepN'
p2311
I0
sg42
g43
sg22
Nsg19
NsS'trials.thisTrialN'
p2312
I196
sg23
g136
sg21
Nsg18
Nsa(dp2313
g20
Nsg39
g11
sS'trials.thisIndex'
p2314
g35
(g60
S'_\x00\x00\x00'
tRp2315
sg25
Nsg53
V./greyInner/JasonSegel(Marshall)11_1_cut.png
p2316
sg34
g38
sg24
Nsg52
g35
(g63
S'`\x00\x00\x00\x00\x00\x00\x00'
tRp2317
sg32
g33
sg26
S''
sg28
(lp2318
F0.18395633273030398
asS'trials.thisN'
p2319
I197
sg40
g41
sg16
g67
sg17
F1.696
sg27
(lp2320
S'return'
p2321
asS'trials.thisRepN'
p2322
I0
sg42
g43
sg22
F4.3280000000000003
sg19
NsS'trials.thisTrialN'
p2323
I197
sg23
Nsg21
g85
sg18
Nsa(dp2324
g20
Nsg39
g11
sS'trials.thisIndex'
p2325
g35
(g60
S'"\x00\x00\x00'
tRp2326
sg25
Nsg53
V./greyInner/BritneySpears8_5_cut.png
p2327
sg34
g38
sg24
Nsg52
g35
(g63
S'#\x00\x00\x00\x00\x00\x00\x00'
tRp2328
sg32
g33
sg26
S'britney spirs'
p2329
sg28
(lp2330
F0.90019541976107575
aF1.3497141200077749
aF1.7661548499509081
aF2.1996053111051879
aF2.5828137751032045
aF3.3659831679815397
aF3.7990220671636052
aF4.7486257743657916
aF5.1650129338886472
aF5.6149685378022696
aF5.964847539224138
aF6.8146421752535389
aF6.9974722460301564
aF8.0473867258260725
asS'trials.thisN'
p2331
I198
sg40
g41
sg16
g80
sg17
F3.2879999999999998
sg27
(lp2332
S'b'
aS'r'
aS'i'
aS't'
aS'n'
aS'e'
aS'y'
aS'space'
p2333
aS's'
aS'p'
aS'i'
aS'r'
aS's'
aS'return'
p2334
asS'trials.thisRepN'
p2335
I0
sg42
g43
sg22
F1.4219999999999999
sg19
NsS'trials.thisTrialN'
p2336
I198
sg23
Nsg21
g85
sg18
Nsa(dp2337
g20
Nsg39
g11
sS'trials.thisIndex'
p2338
g35
(g60
S"'\x00\x00\x00"
tRp2339
sg25
Nsg53
V./greyInner/CarenMiosga9_1_cut.png
p2340
sg34
g38
sg24
F6.2439999999999998
sg52
g35
(g63
S'(\x00\x00\x00\x00\x00\x00\x00'
tRp2341
sg32
g33
sg26
S''
sg28
(lp2342
F0.31706631697306875
asS'trials.thisN'
p2343
I199
sg40
g41
sg16
g67
sg17
F1.379
sg27
(lp2344
S'return'
p2345
asS'trials.thisRepN'
p2346
I0
sg42
g43
sg22
Nsg19
NsS'trials.thisTrialN'
p2347
I199
sg23
g110
sg21
Nsg18
Nsa(dp2348
g20
Nsg39
g11
sS'trials.thisIndex'
p2349
g35
(g60
S'\x05\x00\x00\x00'
tRp2350
sg25
Nsg53
V./greyInner/AngelaMerkel1_1_cut.png
p2351
sg34
g38
sg24
F1.2270000000000001
sg52
g35
(g63
S'\x06\x00\x00\x00\x00\x00\x00\x00'
tRp2352
sg32
g33
sg26
S'merkel'
p2353
sg28
(lp2354
F0.78350877913362638
aF1.2995279387378105
aF1.4330331251239841
aF1.7662273464484315
aF2.1660102418936731
aF2.5162020047519036
aF3.0323799509333185
asS'trials.thisN'
p2355
I200
sg40
g41
sg16
g80
sg17
F1.6100000000000001
sg27
(lp2356
S'm'
aS'e'
aS'r'
aS'k'
aS'e'
aS'l'
aS'return'
p2357
asS'trials.thisRepN'
p2358
I0
sg42
g43
sg22
Nsg19
NsS'trials.thisTrialN'
p2359
I200
sg23
g136
sg21
Nsg18
Nsa(dp2360
g20
F0.94299999999999995
sg39
g11
sS'trials.thisIndex'
p2361
g35
(g60
S'(\x00\x00\x00'
tRp2362
sg25
Nsg53
V./greyInner/CobieSmulders(Robin)12_1_cut.png
p2363
sg34
g38
sg24
Nsg52
g35
(g63
S')\x00\x00\x00\x00\x00\x00\x00'
tRp2364
sg32
g33
sg26
S''
sg28
(lp2365
F0.65020536397059914
asS'trials.thisN'
p2366
I201
sg40
g41
sg16
g80
sg17
F11.952999999999999
sg27
(lp2367
S'return'
p2368
asS'trials.thisRepN'
p2369
I0
sg42
g43
sg22
Nsg19
g216
sS'trials.thisTrialN'
p2370
I201
sg23
Nsg21
Nsg18
Nsa(dp2371
g20
F3.9630000000000001
sg39
g11
sS'trials.thisIndex'
p2372
g35
(g60
S'K\x00\x00\x00'
tRp2373
sg25
Nsg53
V./greyInner/GeorgeClooney11_1_cut.png
p2374
sg34
g38
sg24
Nsg52
g35
(g63
S'L\x00\x00\x00\x00\x00\x00\x00'
tRp2375
sg32
g33
sg26
S'chyu hefner'
p2376
sg28
(lp2377
F1.8163259545162873
aF2.0996278299298865
aF3.8489407171127823
aF3.9656257538354112
aF4.1489042763951147
aF6.3814345452865382
aF6.4811817057343433
aF6.6813355522826896
aF7.1974740424047923
aF7.3476380256324774
aF7.5142301641881204
aF8.3638012158880883
asS'trials.thisN'
p2378
I202
sg40
g41
sg16
g80
sg17
F4.7619999999999996
sg27
(lp2379
S'c'
aS'h'
aS'y'
aS'u'
aS'space'
p2380
aS'h'
aS'e'
aS'f'
aS'n'
aS'e'
aS'r'
aS'return'
p2381
asS'trials.thisRepN'
p2382
I0
sg42
g43
sg22
Nsg19
g71
sS'trials.thisTrialN'
p2383
I202
sg23
Nsg21
Nsg18
Nsa(dp2384
g20
Nsg39
g11
sS'trials.thisIndex'
p2385
g35
(g60
S'\xad\x00\x00\x00'
tRp2386
sg25
Nsg53
V./greyInner/SahraWagenknecht6_2_cut.png
p2387
sg34
g38
sg24
F3.7010000000000001
sg52
g35
(g63
S'\xae\x00\x00\x00\x00\x00\x00\x00'
tRp2388
sg32
g33
sg26
S''
sg28
(lp2389
F0.25046801942153252
asS'trials.thisN'
p2390
I203
sg40
g41
sg16
g67
sg17
F2.0019999999999998
sg27
(lp2391
S'return'
p2392
asS'trials.thisRepN'
p2393
I0
sg42
g43
sg22
Nsg19
NsS'trials.thisTrialN'
p2394
I203
sg23
g110
sg21
Nsg18
Nsa(dp2395
g20
F0.51300000000000001
sg39
g11
sS'trials.thisIndex'
p2396
g35
(g60
S'\xb4\x00\x00\x00'
tRp2397
sg25
Nsg53
V./greyInner/SigmarGabriel1_2_cut.png
p2398
sg34
g38
sg24
Nsg52
g35
(g63
S'\xb5\x00\x00\x00\x00\x00\x00\x00'
tRp2399
sg32
g33
sg26
S''
sg28
(lp2400
F0.61682233097417338
asS'trials.thisN'
p2401
I204
sg40
g41
sg16
g80
sg17
F1.7949999999999999
sg27
(lp2402
S'return'
p2403
asS'trials.thisRepN'
p2404
I0
sg42
g43
sg22
Nsg19
g71
sS'trials.thisTrialN'
p2405
I204
sg23
Nsg21
Nsg18
Nsa(dp2406
g20
Nsg39
g11
sS'trials.thisIndex'
p2407
g35
(g60
S'\xc6\x00\x00\x00'
tRp2408
sg25
Nsg53
V./greyInner/UrsulavonderLeyen7_1_cut.png
p2409
sg34
g38
sg24
F1.8460000000000001
sg52
g35
(g63
S'\xc7\x00\x00\x00\x00\x00\x00\x00'
tRp2410
sg32
g33
sg26
S''
sg28
(lp2411
F0.68347676519442757
asS'trials.thisN'
p2412
I205
sg40
g41
sg16
g67
sg17
F1.2290000000000001
sg27
(lp2413
S'return'
p2414
asS'trials.thisRepN'
p2415
I0
sg42
g43
sg22
Nsg19
NsS'trials.thisTrialN'
p2416
I205
sg23
g136
sg21
Nsg18
Nsa(dp2417
g20
Nsg39
g11
sS'trials.thisIndex'
p2418
g35
(g60
S',\x00\x00\x00'
tRp2419
sg25
Nsg53
V./greyInner/CobieSmulders(Robin)5_1_cut.png
p2420
sg34
g38
sg24
Nsg52
g35
(g63
S'-\x00\x00\x00\x00\x00\x00\x00'
tRp2421
sg32
g33
sg26
S''
sg28
(lp2422
F0.71690727377244912
asS'trials.thisN'
p2423
I206
sg40
g41
sg16
g80
sg17
F2.2469999999999999
sg27
(lp2424
S'return'
p2425
asS'trials.thisRepN'
p2426
I0
sg42
g43
sg22
F1.962
sg19
NsS'trials.thisTrialN'
p2427
I206
sg23
Nsg21
g85
sg18
Nsa(dp2428
g20
Nsg39
g11
sS'trials.thisIndex'
p2429
g35
(g60
S'-\x00\x00\x00'
tRp2430
sg25
Nsg53
V./greyInner/CristinMilioti(Tracy_Mutter)10_1_cut.png
p2431
sg34
g38
sg24
F4.3419999999999996
sg52
g35
(g63
S'.\x00\x00\x00\x00\x00\x00\x00'
tRp2432
sg32
g33
sg26
S''
sg28
(lp2433
F0.65008346720605914
asS'trials.thisN'
p2434
I207
sg40
g41
sg16
g67
sg17
F1.46
sg27
(lp2435
S'return'
p2436
asS'trials.thisRepN'
p2437
I0
sg42
g43
sg22
Nsg19
NsS'trials.thisTrialN'
p2438
I207
sg23
g110
sg21
Nsg18
Nsa(dp2439
g20
Nsg39
g11
sS'trials.thisIndex'
p2440
g35
(g60
S'\r\x00\x00\x00'
tRp2441
sg25
Nsg53
V./greyInner/BarackObama4_1_cut.png
p2442
sg34
g38
sg24
F1.081
sg52
g35
(g63
S'\x0e\x00\x00\x00\x00\x00\x00\x00'
tRp2443
sg32
g33
sg26
S'obama'
p2444
sg28
(lp2445
F1.149977288707305
aF1.599946365422511
aF2.1330846425462369
aF2.2329158476059092
aF2.2996078131982358
aF2.9325997500473022
asS'trials.thisN'
p2446
I208
sg40
g41
sg16
g80
sg17
F1.4970000000000001
sg27
(lp2447
S'o'
aS'b'
aS'a'
aS'm'
aS'a'
aS'return'
p2448
asS'trials.thisRepN'
p2449
I0
sg42
g43
sg22
Nsg19
NsS'trials.thisTrialN'
p2450
I208
sg23
g136
sg21
Nsg18
Nsa(dp2451
g20
Nsg39
g11
sS'trials.thisIndex'
p2452
g35
(g60
S'{\x00\x00\x00'
tRp2453
sg25
Nsg53
V./greyInner/KaleyCuoco(Penny)5_2_cut.png
p2454
sg34
g38
sg24
Nsg52
g35
(g63
S'|\x00\x00\x00\x00\x00\x00\x00'
tRp2455
sg32
g33
sg26
S'spirs'
p2456
sg28
(lp2457
F0.68339432448556181
aF1.3499992942815879
aF1.666547550003088
aF2.3492685552537296
aF2.8659026519599138
aF3.2159288918428501
asS'trials.thisN'
p2458
I209
sg40
g41
sg16
g80
sg17
F4.484
sg27
(lp2459
S's'
aS'p'
aS'i'
aS'r'
aS's'
aS'return'
p2460
asS'trials.thisRepN'
p2461
I0
sg42
g43
sg22
F1.385
sg19
NsS'trials.thisTrialN'
p2462
I209
sg23
Nsg21
g85
sg18
Nsa(dp2463
g20
Nsg39
g11
sS'trials.thisIndex'
p2464
g35
(g60
S'\x0b\x00\x00\x00'
tRp2465
sg25
Nsg53
V./greyInner/BarackObama11_2_cut.png
p2466
sg34
g38
sg24
F0.77200000000000002
sg52
g35
(g63
S'\x0c\x00\x00\x00\x00\x00\x00\x00'
tRp2467
sg32
g33
sg26
S'obama'
p2468
sg28
(lp2469
F0.51697284140209376
aF1.5333458224049537
aF1.8664643394222367
aF2.2163587383311096
aF2.5661248248543416
aF3.2325504780928895
asS'trials.thisN'
p2470
I210
sg40
g41
sg16
g80
sg17
F1.167
sg27
(lp2471
S'o'
aS'b'
aS'a'
aS'm'
aS'a'
aS'return'
p2472
asS'trials.thisRepN'
p2473
I0
sg42
g43
sg22
Nsg19
NsS'trials.thisTrialN'
p2474
I210
sg23
g136
sg21
Nsg18
Nsa(dp2475
g20
F1.8740000000000001
sg39
g11
sS'trials.thisIndex'
p2476
g35
(g60
S'\x16\x00\x00\x00'
tRp2477
sg25
Nsg53
V./greyInner/BenedictCumberbatch3_9_cut.png
p2478
sg34
g38
sg24
Nsg52
g35
(g63
S'\x17\x00\x00\x00\x00\x00\x00\x00'
tRp2479
sg32
g33
sg26
S''
sg28
(lp2480
F0.10051799709435727
asS'trials.thisN'
p2481
I211
sg40
g41
sg16
g80
sg17
F1.7430000000000001
sg27
(lp2482
S'return'
p2483
asS'trials.thisRepN'
p2484
I0
sg42
g43
sg22
Nsg19
g71
sS'trials.thisTrialN'
p2485
I211
sg23
Nsg21
Nsg18
Nsa(dp2486
g20
F0.72999999999999998
sg39
g11
sS'trials.thisIndex'
p2487
g35
(g60
S'\x99\x00\x00\x00'
tRp2488
sg25
Nsg53
V./greyInner/NeilPatrickHarris(Barney)2_2_cut.png
p2489
sg34
g38
sg24
Nsg52
g35
(g63
S'\x9a\x00\x00\x00\x00\x00\x00\x00'
tRp2490
sg32
g33
sg26
S''
sg28
(lp2491
F0.23352629377222911
asS'trials.thisN'
p2492
I212
sg40
g41
sg16
g80
sg17
F1.3140000000000001
sg27
(lp2493
S'return'
p2494
asS'trials.thisRepN'
p2495
I0
sg42
g43
sg22
Nsg19
g71
sS'trials.thisTrialN'
p2496
I212
sg23
Nsg21
Nsg18
Nsa(dp2497
g20
Nsg39
g11
sS'trials.thisIndex'
p2498
g35
(g60
S'\xa3\x00\x00\x00'
tRp2499
sg25
Nsg53
V./greyInner/OmarEpps(DrEricForeman)5_2_cut.png
p2500
sg34
g38
sg24
Nsg52
g35
(g63
S'\xa4\x00\x00\x00\x00\x00\x00\x00'
tRp2501
sg32
g33
sg26
S''
sg28
(lp2502
F0.11762235868991411
asS'trials.thisN'
p2503
I213
sg40
g41
sg16
g80
sg17
F1.8120000000000001
sg27
(lp2504
S'return'
p2505
asS'trials.thisRepN'
p2506
I0
sg42
g43
sg22
F0.73299999999999998
sg19
NsS'trials.thisTrialN'
p2507
I213
sg23
Nsg21
g85
sg18
Nsa(dp2508
g20
F29.364999999999998
sg39
g11
sS'trials.thisIndex'
p2509
g35
(g60
S'D\x00\x00\x00'
tRp2510
sg25
Nsg53
V./greyInner/EmmaWatson(HermioneGranger)4_1_cut.png
p2511
sg34
g38
sg24
Nsg52
g35
(g63
S'E\x00\x00\x00\x00\x00\x00\x00'
tRp2512
sg32
g33
sg26
S'germiona harry poter'
p2513
sg28
(lp2514
F0.75007730821198493
aF1.1165503087195248
aF1.832941445925826
aF2.1328758141426079
aF2.4325314237030398
aF5.0150808752950979
aF5.2648216842790134
aF6.2311656666861381
aF7.3807881716511474
aF7.7306463223103492
aF8.4135819300227013
aF10.246408215585689
aF10.445969900480122
aF10.596094748430914
aF10.762750401618177
aF10.912541316587522
aF11.295926210113976
aF24.274079422799332
aF24.457478238218755
aF24.607129292689933
aF24.873939177363354
aF25.257138017932448
aF25.840087162601776
aF26.156519616397418
aF26.290040521051196
aF26.756256832633881
aF27.006304949778496
aF27.139725129211001
aF28.188959232589696
aF28.555837700230768
aF28.972072809579913
aF30.055234311244931
aF30.388438155996482
aF30.70488985664997
aF30.838298487966313
aF31.521331613092116
aF32.287574036245132
aF32.754054029777762
aF32.970727775011255
aF33.620356374814946
aF33.77033109727563
aF33.987000030794661
aF34.153535391122205
aF35.769619284325017
aF35.902854693924382
aF36.069405130954692
aF36.935897378321897
aF37.369012623372328
aF38.951698406874129
asS'trials.thisN'
p2515
I214
sg40
g41
sg16
g80
sg17
F3.8420000000000001
sg27
(lp2516
S'e'
aS'm'
aS'm'
aS'a'
aS'space'
p2517
aS'u'
aS'o'
aS't'
aS's'
aS'o'
aS'n'
aS'backspace'
p2518
aS'backspace'
p2519
aS'backspace'
p2520
aS'backspace'
p2521
aS'backspace'
p2522
aS'backspace'
p2523
aS'backspace'
p2524
aS'backspace'
p2525
aS'backspace'
p2526
aS'backspace'
p2527
aS'backspace'
p2528
aS'g'
aS'e'
aS'r'
aS'm'
aS'i'
aS'o'
aS'n'
aS'a'
aS'space'
p2529
aS'h'
aS'a'
aS'r'
aS'r'
aS'y'
aS'space'
p2530
aS'p'
aS'o'
aS't'
aS't'
aS'e'
aS'r'
aS'backspace'
p2531
aS'backspace'
p2532
aS'backspace'
p2533
aS'e'
aS'r'
aS'return'
p2534
asS'trials.thisRepN'
p2535
I0
sg42
g43
sg22
Nsg19
g71
sS'trials.thisTrialN'
p2536
I214
sg23
Nsg21
Nsg18
Nsa(dp2537
g20
Nsg39
g11
sS'trials.thisIndex'
p2538
g35
(g60
S'Z\x00\x00\x00'
tRp2539
sg25
Nsg53
V./greyInner/JanHofer1_3_cut.png
p2540
sg34
g38
sg24
F2.2120000000000002
sg52
g35
(g63
S'[\x00\x00\x00\x00\x00\x00\x00'
tRp2541
sg32
g33
sg26
S''
sg28
(lp2542
F0.56720681903425429
asS'trials.thisN'
p2543
I215
sg40
g41
sg16
g67
sg17
F1.613
sg27
(lp2544
S'return'
p2545
asS'trials.thisRepN'
p2546
I0
sg42
g43
sg22
Nsg19
NsS'trials.thisTrialN'
p2547
I215
sg23
g136
sg21
Nsg18
Nsa(dp2548
g20
Nsg39
g11
sS'trials.thisIndex'
p2549
g35
(g60
S'#\x00\x00\x00'
tRp2550
sg25
Nsg53
V./greyInner/CarenMiosga1_1_cut.png
p2551
sg34
g38
sg24
F2.677
sg52
g35
(g63
S'$\x00\x00\x00\x00\x00\x00\x00'
tRp2552
sg32
g33
sg26
S''
sg28
(lp2553
F0.30039597201903234
asS'trials.thisN'
p2554
I216
sg40
g41
sg16
g80
sg17
F2.6429999999999998
sg27
(lp2555
S'return'
p2556
asS'trials.thisRepN'
p2557
I0
sg42
g43
sg22
Nsg19
NsS'trials.thisTrialN'
p2558
I216
sg23
g136
sg21
Nsg18
Nsa(dp2559
g20
F0.44400000000000001
sg39
g11
sS'trials.thisIndex'
p2560
g35
(g60
S'\xa7\x00\x00\x00'
tRp2561
sg25
Nsg53
V./greyInner/RobertSeanLeonard(Wilson)11_2_cut.png
p2562
sg34
g38
sg24
Nsg52
g35
(g63
S'\xa8\x00\x00\x00\x00\x00\x00\x00'
tRp2563
sg32
g33
sg26
S''
sg28
(lp2564
F0.15019574054167606
asS'trials.thisN'
p2565
I217
sg40
g41
sg16
g80
sg17
F1.177
sg27
(lp2566
S'return'
p2567
asS'trials.thisRepN'
p2568
I0
sg42
g43
sg22
Nsg19
g216
sS'trials.thisTrialN'
p2569
I217
sg23
Nsg21
Nsg18
Nsa(dp2570
g20
F1.7310000000000001
sg39
g11
sS'trials.thisIndex'
p2571
g35
(g60
S'\xab\x00\x00\x00'
tRp2572
sg25
Nsg53
V./greyInner/SahraWagenknecht2_2_cut.png
p2573
sg34
g38
sg24
Nsg52
g35
(g63
S'\xac\x00\x00\x00\x00\x00\x00\x00'
tRp2574
sg32
g33
sg26
S''
sg28
(lp2575
F0.00028838208345405292
asS'trials.thisN'
p2576
I218
sg40
g41
sg16
g80
sg17
F3.234
sg27
(lp2577
S'return'
p2578
asS'trials.thisRepN'
p2579
I0
sg42
g43
sg22
Nsg19
g216
sS'trials.thisTrialN'
p2580
I218
sg23
Nsg21
Nsg18
Nsa(dp2581
g20
Nsg39
g11
sS'trials.thisIndex'
p2582
g35
(g60
S'~\x00\x00\x00'
tRp2583
sg25
Nsg53
V./greyInner/KatjaBurkard10_1_cut.png
p2584
sg34
g38
sg24
F2.5960000000000001
sg52
g35
(g63
S'\x7f\x00\x00\x00\x00\x00\x00\x00'
tRp2585
sg32
g33
sg26
S''
sg28
(lp2586
F0.1170192904828582
asS'trials.thisN'
p2587
I219
sg40
g41
sg16
g67
sg17
F1.179
sg27
(lp2588
S'return'
p2589
asS'trials.thisRepN'
p2590
I0
sg42
g43
sg22
Nsg19
NsS'trials.thisTrialN'
p2591
I219
sg23
g110
sg21
Nsg18
Nsa(dp2592
g20
F0.79900000000000004
sg39
g11
sS'trials.thisIndex'
p2593
g35
(g60
S'\x17\x00\x00\x00'
tRp2594
sg25
Nsg53
V./greyInner/BenedictCumberbatch4_1_cut.png
p2595
sg34
g38
sg24
Nsg52
g35
(g63
S'\x18\x00\x00\x00\x00\x00\x00\x00'
tRp2596
sg32
g33
sg26
S'scherlok'
p2597
sg28
(lp2598
F0.48365332303364994
aF0.71694608826874173
aF0.98353014314488973
aF1.3001156094578619
aF1.4499523961039813
aF1.9331861376431334
aF2.0830854765772528
aF2.6327988267112232
aF4.1655743005685508
asS'trials.thisN'
p2599
I220
sg40
g41
sg16
g80
sg17
F5.0780000000000003
sg27
(lp2600
S's'
aS'c'
aS'h'
aS'e'
aS'r'
aS'l'
aS'o'
aS'k'
aS'return'
p2601
asS'trials.thisRepN'
p2602
I0
sg42
g43
sg22
Nsg19
g216
sS'trials.thisTrialN'
p2603
I220
sg23
Nsg21
Nsg18
Nsa(dp2604
g20
F0.47799999999999998
sg39
g11
sS'trials.thisIndex'
p2605
g35
(g60
S'\xc0\x00\x00\x00'
tRp2606
sg25
Nsg53
V./greyInner/TomCruise5_1_cut.png
p2607
sg34
g38
sg24
Nsg52
g35
(g63
S'\xc1\x00\x00\x00\x00\x00\x00\x00'
tRp2608
sg32
g33
sg26
S''
sg28
(lp2609
F0.3500929623223783
asS'trials.thisN'
p2610
I221
sg40
g41
sg16
g80
sg17
F4.3920000000000003
sg27
(lp2611
S'return'
p2612
asS'trials.thisRepN'
p2613
I0
sg42
g43
sg22
Nsg19
g71
sS'trials.thisTrialN'
p2614
I221
sg23
Nsg21
Nsg18
Nsa(dp2615
g20
Nsg39
g11
sS'trials.thisIndex'
p2616
g35
(g60
S'\x9e\x00\x00\x00'
tRp2617
sg25
Nsg53
V./greyInner/NicoleKidman7_1_cut.png
p2618
sg34
g38
sg24
Nsg52
g35
(g63
S'\x9f\x00\x00\x00\x00\x00\x00\x00'
tRp2619
sg32
g33
sg26
S''
sg28
(lp2620
F0.16697835883314838
asS'trials.thisN'
p2621
I222
sg40
g41
sg16
g67
sg17
F1.3129999999999999
sg27
(lp2622
S'return'
p2623
asS'trials.thisRepN'
p2624
I0
sg42
g43
sg22
F0.72899999999999998
sg19
NsS'trials.thisTrialN'
p2625
I222
sg23
Nsg21
g85
sg18
Nsa(dp2626
g20
Nsg39
g11
sS'trials.thisIndex'
p2627
g35
(g60
S'\n\x00\x00\x00'
tRp2628
sg25
Nsg53
V./greyInner/BarackObama1_3_cut.png
p2629
sg34
g38
sg24
F1.482
sg52
g35
(g63
S'\x0b\x00\x00\x00\x00\x00\x00\x00'
tRp2630
sg32
g33
sg26
S'obama'
p2631
sg28
(lp2632
F0.3670808804272383
aF1.1167520799426711
aF1.4166444258535194
aF1.783122558856121
aF2.1330807931753952
aF2.7661067328062927
asS'trials.thisN'
p2633
I223
sg40
g41
sg16
g80
sg17
F1.369
sg27
(lp2634
S'o'
aS'b'
aS'a'
aS'm'
aS'a'
aS'return'
p2635
asS'trials.thisRepN'
p2636
I0
sg42
g43
sg22
Nsg19
NsS'trials.thisTrialN'
p2637
I223
sg23
g136
sg21
Nsg18
NsasS'loops'
p2638
(lp2639
g1
(cpsychopy.data
TrialHandler
p2640
g3
NtRp2641
(dp2642
S'origin'
p2643
NsS'thisTrial'
p2644
(lp2645
sS'_exp'
p2646
I356974160
sg10
S'trials'
p2647
sg6
I-1
sS'thisRepN'
p2648
I1
sg29
I01
sg30
g31
sS'data'
p2649
g1
(cpsychopy.data
DataHandler
p2650
c__builtin__
dict
p2651
(dp2652
g16
cnumpy.core.multiarray
_reconstruct
p2653
(cnumpy
ndarray
p2654
(I0
tS'b'
tRp2655
(I1
(I224
I1
tg36
(S'O4'
I0
I1
tRp2656
(I3
S'|'
NNNI-1
I-1
I63
tbI00
(lp2657
g80
ag80
ag80
ag80
ag80
ag80
ag80
ag67
ag80
ag67
ag80
ag80
ag80
ag80
ag80
ag67
ag67
ag67
ag67
ag80
ag80
ag80
ag80
ag80
ag80
ag67
ag67
ag67
ag80
ag80
ag67
ag80
ag80
ag67
ag80
ag80
ag67
ag67
ag67
ag67
ag80
ag67
ag80
ag67
ag80
ag67
ag67
ag67
ag67
ag67
ag67
ag67
ag67
ag67
ag67
ag67
ag67
ag67
ag80
ag80
ag67
ag67
ag67
ag80
ag80
ag80
ag80
ag80
ag80
ag80
ag67
ag67
ag67
ag67
ag67
ag80
ag80
ag67
ag80
ag80
ag80
ag80
ag80
ag67
ag80
ag67
ag80
ag80
ag67
ag80
ag67
ag67
ag80
ag67
ag67
ag67
ag80
ag67
ag80
ag80
ag80
ag80
ag80
ag80
ag80
ag67
ag67
ag67
ag67
ag67
ag80
ag80
ag80
ag80
ag80
ag80
ag67
ag67
ag67
ag67
ag80
ag80
ag80
ag80
ag80
ag80
ag67
ag67
ag67
ag67
ag80
ag80
ag80
ag80
ag80
ag67
ag67
ag80
ag80
ag67
ag67
ag67
ag67
ag67
ag67
ag80
ag67
ag80
ag67
ag67
ag80
ag80
ag80
ag80
ag80
ag67
ag67
ag67
ag67
ag67
ag80
ag80
ag80
ag80
ag80
ag80
ag80
ag80
ag80
ag80
ag67
ag80
ag67
ag67
ag67
ag67
ag67
ag67
ag67
ag67
ag80
ag67
ag67
ag67
ag67
ag67
ag67
ag80
ag67
ag67
ag80
ag80
ag80
ag80
ag80
ag67
ag67
ag67
ag67
ag67
ag80
ag80
ag80
ag67
ag80
ag80
ag67
ag80
ag80
ag80
ag67
ag67
ag67
ag67
ag67
ag80
ag67
ag80
ag67
ag67
ag67
ag67
ag67
ag67
atbsg20
g2653
(g2654
(I0
tS'b'
tRp2658
(I1
(I224
I1
tg2656
I00
(lp2659
NaF4.149
aNaNaNaNaNaNaNaNaNaNaNaNaNaNaNaNaNaNaF2.1440000000000001
aF1.661
aF1.8740000000000001
aF0.79900000000000004
aF1.2230000000000001
aNaNaNaF1.292
aF0.82899999999999996
aNaNaNaNaNaNaNaNaNaNaF0.94299999999999995
aNaF1.0089999999999999
aNaNaNaNaNaNaNaNaNaNaNaNaNaNaNaF1.665
aNaF1.177
aNaNaF1.472
aF16.613
aF0.745
aF6.617
aF4.2590000000000003
aF29.364999999999998
aF1.512
aNaNaNaNaS'14.7469997406'
p2660
aF3.9630000000000001
aNaNaF2.5299999999999998
aNaF88.049999999999997
aF0.91000000000000003
aF1.5449999999999999
aNaF6.399
aNaNaF7.5940000000000003
aNaNaNaNaNaNaNaNaNaNaF1.278
aF1.7789999999999999
aNaF0.57899999999999996
aF6.6760000000000002
aF0.47699999999999998
aF0.67900000000000005
aNaNaNaNaNaF0.90600000000000003
aF3.802
aF0.64600000000000002
aNaF0.63
aF1.6599999999999999
aNaNaNaNaF15.916
aF2.8610000000000002
aF5.5110000000000001
aNaNaF1.8600000000000001
aNaNaNaNaF0.60399999999999998
aF1.276
aF0.91600000000000004
aF1.079
aF0.68700000000000006
aNaF1.5620000000000001
aF16.402999999999999
aF5.2759999999999998
aNaNaNaNaNaF51.149999999999999
aNaNaF4.6120000000000001
aNaF5.6399999999999997
aF2.7589999999999999
aF1.3799999999999999
aF0.89000000000000001
aF0.72999999999999998
aF1.2969999999999999
aNaNaNaNaNaNaF1.321
aF5.8289999999999997
aNaNaF0.70599999999999996
aF3.7869999999999999
aF0.44400000000000001
aF1.8109999999999999
aF2.5299999999999998
aNaF1.7310000000000001
aNaNaNaNaNaNaF7.6269999999999998
aNaF0.51300000000000001
aNaNaNaNaF3.4830000000000001
aNaNaNaNaF0.58099999999999996
aF0.89200000000000002
aF0.47799999999999998
aF1.0629999999999999
aF0.497
aNaNaNaNaNaNaNaNaF1.278
aNaF0.96399999999999997
aNaF1.758
aF1.2629999999999999
aF1.9950000000000001
aNaNaNaNaNaNaNaNaNaNaNaNaNaNatbsg17
cnumpy.ma.core
_mareconstruct
p2661
(cnumpy.ma.core
MaskedArray
p2662
g2654
(I0
tp2663
S'b'
tRp2664
(I1
(I224
I1
tg36
(S'f4'
I0
I1
tRp2665
(I3
S'<'
NNNI-1
I-1
I0
tbI00
S'+\x87\xc2@\xe7\xfb!@b\x10\xec@\xf4\xfd\xf8@\xd5x\xd1@{\x14\xce?+\x87V@\xbe\x9f\xd6@\x89A\x08@{\x14\xa6@d;\xaf?B`\x95?D\x8b\xec?\xb2\x9d\xbf?\xd3M:@}?\xc5?\xbaI\xcc?\xd7\xa3\x90?\x91\xed\x81A1\x08\x1c@=\nOA\xaeG\t@\xa0\x1a\xdf?\xfa~\xa2@q=\x1a@f\xe6\x19B\xe7\xfb\xc9?\xc9v\x9a@\xc9v\x0e@\xa2E\x8e@\xee|\x0f@\x1f\x85\xc3@\x89A"AR\xb8^@\x98nR@\xe9&)@\x8f\xc2\xc5?\'1\x88@\xac\x1c\x8a?\x12\x83\xb0?}??A\xdd$\x06@ffN@\xd9\xce\x05A\xd9\xce\x0f@H\xe1\xba?D\x8b\xcc?\x7fj\x0c@D\x8b\x04@\x14\xae\xf7?V\x0eE@b\x10\x80@\xe7\xfb\xc9?\xd9\xce\xe7?\x7fj\x9c?;\xdfg@P\x8dWAb\x10\xc8?\xbe\x9f\n@R\xb8\x96@\n\xd7C@/\xdd\x1c@\x96Ck@\xcb\xa1\x05@%\x06yAw\xbe\x15A!\xb0\xba@R\xb8n@T\xe3u@\x93\x18\x9c@\x8f\xc2\xc5?\xc9v6@\xc5 8@\x98n\x1a@\x14\xae\rANb\x98@\x0e-\xf2?\x87\x16\t@+\x87\x82@\xf2\xd2-@X9\xa4?X9|@P\x8d/@\xe3\xa5\xcb?\xf4\xfdl@`\xe5\x00@=\n\x83@\xd9\xce\xef@D\x8b\x04@Nb\xcc@\xc9v\xce?!\xb0\xd2?\xcd\xcc\x0eA\xa6\x9b AV\x0e%@\x87\x16\xd9?\xb8\x1e\r@\'1~A\xd9\xce\xe7?\x1f\x85\xab@\xfa~\x82@H\xe1\x12@\xaa\xf1\xba@^\xba\xc9?\xbe\x9f\xda?\x9c\xc4\x08@\n\xd7\xc3?\xdfO\xdd?\x81\x95\xc3?%\x06\xe1?\x0c\x02\x13@;\xdf\x0f@\xc9v\xee?1\x08\x8c@\xa4p\xdd?=\nW@\x08\xac\xcc?T\xe3\xc5?H\xe1\x02@ff\xb6?\xac\x1cZ@L7\x19@\'18@\xee|\x8f@\xbe\x9f2@\xd3M\xf2?y\xe9\x96?\x06\x81\xf5?\x98n\xa2?m\xe7\xeb?3\xf3\xe2B{\x14wBJ\x0c\x8a@d;\xd7@\xf4\xfd|@d;\'@\xdb\xf9\x8a@}?_A\xa0\x1a\x9f@\xd1"\xdb?\xc1\xca\x11@\xf6(\xcc?b\x10\xe8?\x7fj(A\xf6(4@\xbe\x9f\xae@L7\xf9?\'1\xe8?\xc5 \x90?\x08\xac\xfc?Nb\xb0?\xaa\xf12@\x81\x95#@\'1\xa8?ff\xc6@\xee|\xdf?1\x084@\xbe\x9f\xda?b\x10\xa8?\n\xd7C@#\xdb\x19@L7Q@\xdfO=@\x9e\xef\xe7?1\x08\x14@\xb6\xf3\xdd?\xdd$\x1e@\xf0\xa7\x96?\x87\x16\t@q=Z@\xac\x1c\xea?\xdb\xf9N@\x7fj\x1c@\xc5 \x00@\xc9v\x1e@\x9c\xc4\xe0@\xf4\xfd\xb4?\xbaI\xcc?\x9c\xc4\xb9A\x89A\xf0?\x8f\xc2\xe5?;\xdf\xef?-\xb2\x95@?5>A\x1dZ\x8fA\xd7\xa3\xec@\xbct\xc3?\'1\x08@w\xbe\xbf?\x1b/\x85@\xe5\xd0\x8e@\xd1"\xbf@D\x8b\x8c@\x8d\x97^@\x1dZ\xe0@\x87\x16\xf9?\xb4\xc8\x89A\x1b/\x9d?\xdfO\x9d?\xb6\xf3\x15@\x9a\x99i@\xa4p\x1d@\x06\x81\r@\n\xd7/AP\x8dO@w\xbeO@?5\xce?;\xdfw@\xd9\xce\xd7@\x7fj\\@\x9c\xc4\xa0?\x87\x16Q@\x0c\x02\xab?\xa0\x1a%AT\xe3\xe5?\xaeG\xc1@7\x89A@\xcb\xa1\x91@\x87\x16\x01@\xfc\xa9\xd1?\xc3\xf5\x90@\x85\xeb\xe1?\xe5\xd0\x12@B`\xc9@'
S'\x00\x00\x00\x00\x00\x00\x00\x00\x00\x00\x00\x00\x00\x00\x00\x00\x00\x00\x00\x00\x00\x00\x00\x00\x00\x00\x00\x00\x00\x00\x00\x00\x00\x00\x00\x00\x00\x00\x00\x00\x00\x00\x00\x00\x00\x00\x00\x00\x00\x00\x00\x00\x00\x00\x00\x00\x00\x00\x00\x00\x00\x00\x00\x00\x00\x00\x00\x00\x00\x00\x00\x00\x00\x00\x00\x00\x00\x00\x00\x00\x00\x00\x00\x00\x00\x00\x00\x00\x00\x00\x00\x00\x00\x00\x00\x00\x00\x00\x00\x00\x00\x00\x00\x00\x00\x00\x00\x00\x00\x00\x00\x00\x00\x00\x00\x00\x00\x00\x00\x00\x00\x00\x00\x00\x00\x00\x00\x00\x00\x00\x00\x00\x00\x00\x00\x00\x00\x00\x00\x00\x00\x00\x00\x00\x00\x00\x00\x00\x00\x00\x00\x00\x00\x00\x00\x00\x00\x00\x00\x00\x00\x00\x00\x00\x00\x00\x00\x00\x00\x00\x00\x00\x00\x00\x00\x00\x00\x00\x00\x00\x00\x00\x00\x00\x00\x00\x00\x00\x00\x00\x00\x00\x00\x00\x00\x00\x00\x00\x00\x00\x00\x00\x00\x00\x00\x00\x00\x00\x00\x00\x00\x00\x00\x00\x00\x00\x00\x00\x00\x00\x00\x00\x00\x00'
NtbsS'ran'
p2666
g2661
(g2662
g2654
g2663
S'b'
tRp2667
(I1
(I224
I1
tg2665
I00
S'\x00\x00\x80?\x00\x00\x80?\x00\x00\x80?\x00\x00\x80?\x00\x00\x80?\x00\x00\x80?\x00\x00\x80?\x00\x00\x80?\x00\x00\x80?\x00\x00\x80?\x00\x00\x80?\x00\x00\x80?\x00\x00\x80?\x00\x00\x80?\x00\x00\x80?\x00\x00\x80?\x00\x00\x80?\x00\x00\x80?\x00\x00\x80?\x00\x00\x80?\x00\x00\x80?\x00\x00\x80?\x00\x00\x80?\x00\x00\x80?\x00\x00\x80?\x00\x00\x80?\x00\x00\x80?\x00\x00\x80?\x00\x00\x80?\x00\x00\x80?\x00\x00\x80?\x00\x00\x80?\x00\x00\x80?\x00\x00\x80?\x00\x00\x80?\x00\x00\x80?\x00\x00\x80?\x00\x00\x80?\x00\x00\x80?\x00\x00\x80?\x00\x00\x80?\x00\x00\x80?\x00\x00\x80?\x00\x00\x80?\x00\x00\x80?\x00\x00\x80?\x00\x00\x80?\x00\x00\x80?\x00\x00\x80?\x00\x00\x80?\x00\x00\x80?\x00\x00\x80?\x00\x00\x80?\x00\x00\x80?\x00\x00\x80?\x00\x00\x80?\x00\x00\x80?\x00\x00\x80?\x00\x00\x80?\x00\x00\x80?\x00\x00\x80?\x00\x00\x80?\x00\x00\x80?\x00\x00\x80?\x00\x00\x80?\x00\x00\x80?\x00\x00\x80?\x00\x00\x80?\x00\x00\x80?\x00\x00\x80?\x00\x00\x80?\x00\x00\x80?\x00\x00\x80?\x00\x00\x80?\x00\x00\x80?\x00\x00\x80?\x00\x00\x80?\x00\x00\x80?\x00\x00\x80?\x00\x00\x80?\x00\x00\x80?\x00\x00\x80?\x00\x00\x80?\x00\x00\x80?\x00\x00\x80?\x00\x00\x80?\x00\x00\x80?\x00\x00\x80?\x00\x00\x80?\x00\x00\x80?\x00\x00\x80?\x00\x00\x80?\x00\x00\x80?\x00\x00\x80?\x00\x00\x80?\x00\x00\x80?\x00\x00\x80?\x00\x00\x80?\x00\x00\x80?\x00\x00\x80?\x00\x00\x80?\x00\x00\x80?\x00\x00\x80?\x00\x00\x80?\x00\x00\x80?\x00\x00\x80?\x00\x00\x80?\x00\x00\x80?\x00\x00\x80?\x00\x00\x80?\x00\x00\x80?\x00\x00\x80?\x00\x00\x80?\x00\x00\x80?\x00\x00\x80?\x00\x00\x80?\x00\x00\x80?\x00\x00\x80?\x00\x00\x80?\x00\x00\x80?\x00\x00\x80?\x00\x00\x80?\x00\x00\x80?\x00\x00\x80?\x00\x00\x80?\x00\x00\x80?\x00\x00\x80?\x00\x00\x80?\x00\x00\x80?\x00\x00\x80?\x00\x00\x80?\x00\x00\x80?\x00\x00\x80?\x00\x00\x80?\x00\x00\x80?\x00\x00\x80?\x00\x00\x80?\x00\x00\x80?\x00\x00\x80?\x00\x00\x80?\x00\x00\x80?\x00\x00\x80?\x00\x00\x80?\x00\x00\x80?\x00\x00\x80?\x00\x00\x80?\x00\x00\x80?\x00\x00\x80?\x00\x00\x80?\x00\x00\x80?\x00\x00\x80?\x00\x00\x80?\x00\x00\x80?\x00\x00\x80?\x00\x00\x80?\x00\x00\x80?\x00\x00\x80?\x00\x00\x80?\x00\x00\x80?\x00\x00\x80?\x00\x00\x80?\x00\x00\x80?\x00\x00\x80?\x00\x00\x80?\x00\x00\x80?\x00\x00\x80?\x00\x00\x80?\x00\x00\x80?\x00\x00\x80?\x00\x00\x80?\x00\x00\x80?\x00\x00\x80?\x00\x00\x80?\x00\x00\x80?\x00\x00\x80?\x00\x00\x80?\x00\x00\x80?\x00\x00\x80?\x00\x00\x80?\x00\x00\x80?\x00\x00\x80?\x00\x00\x80?\x00\x00\x80?\x00\x00\x80?\x00\x00\x80?\x00\x00\x80?\x00\x00\x80?\x00\x00\x80?\x00\x00\x80?\x00\x00\x80?\x00\x00\x80?\x00\x00\x80?\x00\x00\x80?\x00\x00\x80?\x00\x00\x80?\x00\x00\x80?\x00\x00\x80?\x00\x00\x80?\x00\x00\x80?\x00\x00\x80?\x00\x00\x80?\x00\x00\x80?\x00\x00\x80?\x00\x00\x80?\x00\x00\x80?\x00\x00\x80?\x00\x00\x80?\x00\x00\x80?\x00\x00\x80?\x00\x00\x80?\x00\x00\x80?\x00\x00\x80?\x00\x00\x80?\x00\x00\x80?\x00\x00\x80?\x00\x00\x80?\x00\x00\x80?\x00\x00\x80?\x00\x00\x80?\x00\x00\x80?\x00\x00\x80?\x00\x00\x80?\x00\x00\x80?\x00\x00\x80?'
S'\x00\x00\x00\x00\x00\x00\x00\x00\x00\x00\x00\x00\x00\x00\x00\x00\x00\x00\x00\x00\x00\x00\x00\x00\x00\x00\x00\x00\x00\x00\x00\x00\x00\x00\x00\x00\x00\x00\x00\x00\x00\x00\x00\x00\x00\x00\x00\x00\x00\x00\x00\x00\x00\x00\x00\x00\x00\x00\x00\x00\x00\x00\x00\x00\x00\x00\x00\x00\x00\x00\x00\x00\x00\x00\x00\x00\x00\x00\x00\x00\x00\x00\x00\x00\x00\x00\x00\x00\x00\x00\x00\x00\x00\x00\x00\x00\x00\x00\x00\x00\x00\x00\x00\x00\x00\x00\x00\x00\x00\x00\x00\x00\x00\x00\x00\x00\x00\x00\x00\x00\x00\x00\x00\x00\x00\x00\x00\x00\x00\x00\x00\x00\x00\x00\x00\x00\x00\x00\x00\x00\x00\x00\x00\x00\x00\x00\x00\x00\x00\x00\x00\x00\x00\x00\x00\x00\x00\x00\x00\x00\x00\x00\x00\x00\x00\x00\x00\x00\x00\x00\x00\x00\x00\x00\x00\x00\x00\x00\x00\x00\x00\x00\x00\x00\x00\x00\x00\x00\x00\x00\x00\x00\x00\x00\x00\x00\x00\x00\x00\x00\x00\x00\x00\x00\x00\x00\x00\x00\x00\x00\x00\x00\x00\x00\x00\x00\x00\x00\x00\x00\x00\x00\x00\x00'
Ntbsg25
g2653
(g2654
(I0
tS'b'
tRp2668
(I1
(I224
I1
tg2656
I00
(lp2669
NaNaNaNaNaNaNaNaNaNaNaNaNaNaNaNaNaNaNaNaNaNaNaNaNaNaNaNaNaNaNaNaNaNaNaNaNaNaNaNaNaNaNaNaNaNaNaNaNaNaNaNaNaNaNaNaNaNaNaNaNaNaNaNaNaNaNaNaNaNaNaNaNaNaNaNaNaNaNaNaNaNaNaNaNaNaNaNaNaNaNaNaNaNaNaNaNaNaNaNaNaNaNaNaNaNaNaNaNaNaNaNaNaNaNaNaNaNaNaNaNaNaNaNaNaNaNaNaNaNaNaNaNaNaNaNaNaNaNaNaNaNaNaNaNaNaNaNaNaNaNaNaNaNaNaNaNaNaNaNaNaNaNaNaNaNaNaNaNaNaNaNaNaNaNaNaNaNaNaNaNaNaNaNaNaNaNaNaNaNaNaNaNaNaNaNaNaNaNaNaNaNaNaNaNaNaNaNaNaNaNaNaNaNaNaNaNaNaNaNaNaNaNaNatbsg22
g2653
(g2654
(I0
tS'b'
tRp2670
(I1
(I224
I1
tg2656
I00
(lp2671
F13.606999999999999
aNaF1.778
aF0.85199999999999998
aF0.68799999999999994
aNaNaNaNaNaNaNaNaNaNaNaNaNaF3.5950000000000002
aNaNaNaNaNaNaF0.70399999999999996
aF6.774
aF0.74299999999999999
aNaNaF18.268999999999998
aF2.3109999999999999
aF3.3279999999999998
aF3.5619999999999998
aF1.4219999999999999
aNaNaF1.669
aNaNaNaF0.78000000000000003
aNaF49.215000000000003
aF1.962
aNaNaF4.2089999999999996
aF4.5990000000000002
aNaNaNaNaNaNaF1.8580000000000001
aF2.077
aNaNaF9.3420000000000005
aNaF0.58899999999999997
aF9.9900000000000002
aNaNaNaNaNaNaNaNaNaNaNaNaNaF0.54100000000000004
aF4.6749999999999998
aNaF1.1000000000000001
aNaNaNaNaNaNaNaNaF6.4859999999999998
aNaNaNaF2.9609999999999999
aNaNaF4.3280000000000003
aF2.0870000000000002
aF5.4649999999999999
aNaNaF16.323
aNaNaNaNaF50.750999999999998
aF9.6929999999999996
aNaNaNaNaNaNaF4.3419999999999996
aNaNaNaF5.9429999999999996
aNaF3.7410000000000001
aNaNaNaF1.385
aF2.0249999999999999
aNaNaNaF3.6349999999999998
aNaNaNaNaNaNaF3.3119999999999998
aNaNaNaF1.829
aF1.8620000000000001
aF1.9119999999999999
aNaF1.641
aNaF8.9540000000000006
aNaNaF5.492
aNaNaNaNaNaNaF14.355
aNaNaF0.72899999999999998
aNaF1.363
aNaNaF0.73299999999999998
aF0.92900000000000005
aNaNaNaNaNaF1.1120000000000001
aNaNaNaNaF2.492
aF5.6609999999999996
aF0.76400000000000001
aNaF1.1100000000000001
aNaNaNaNaNaNaNaF2.3780000000000001
aNaF12.308
aNaNaNaNaNaNaNaNaNaNaNaNaF0.59899999999999998
aNaNaNaF2.5089999999999999
aNaNaNaF3.4700000000000002
aNaF0.98599999999999999
aF13.583
aF1.1459999999999999
aF3.0579999999999998
aF13.503
aF3.6019999999999999
aF1.536
aNaF0.71299999999999997
aF1.2010000000000001
aNaNatbsg27
g2653
(g2654
(I0
tS'b'
tRp2672
(I1
(I224
I1
tg2656
I00
(lp2673
(lp2674
S'l'
aS'i'
aS'n'
aS'd'
aS's'
aS'e'
aS'y'
ag420
aS's'
aS't'
aS'i'
aS'r'
aS'l'
aS'i'
aS'n'
aS'g'
ag421
aa(lp2675
g2018
aa(lp2676
S's'
aS't'
aS'i'
aS'r'
aS'l'
aS'i'
aS'n'
aS'g'
ag1037
aa(lp2677
S's'
aS'r'
aS'i'
ag787
ag788
aS't'
aS'i'
aS'r'
aS'l'
aS'i'
aS'n'
aS'g'
ag789
aa(lp2678
S's'
aS'r'
aS'i'
aS'r'
aS'l'
ag1323
ag1324
ag1325
ag1326
aS't'
aS'i'
aS'r'
aS'l'
aS'i'
aS'n'
aS'g'
ag1327
aa(lp2679
S'm'
aS'e'
aS'r'
aS'k'
aS'e'
aS'l'
ag2357
aa(lp2680
S'm'
aS'e'
aS'r'
aS'k'
aS'e'
aS'l'
ag2310
aa(lp2681
g583
aa(lp2682
S'm'
aS'e'
aS'r'
aS'k'
aS'e'
aS'l'
ag341
aa(lp2683
g1648
aa(lp2684
S'o'
aS'b'
aS'a'
aS'm'
aS'a'
ag2635
aa(lp2685
S'o'
aS'b'
aS'a'
aS'm'
aS'a'
ag2472
aa(lp2686
S'o'
aS'b'
aS'a'
aS'm'
aS'a'
ag2119
aa(lp2687
S'o'
aS'b'
aS'a'
aS'm'
aS'a'
ag2448
aa(lp2688
S'o'
aS'b'
aS'a'
aS'm'
aS'a'
ag968
aa(lp2689
g1580
aa(lp2690
g1613
aa(lp2691
g1692
aa(lp2692
g352
aa(lp2693
g226
aa(lp2694
g877
aa(lp2695
g237
aa(lp2696
g2483
aa(lp2697
S's'
aS'c'
aS'h'
aS'e'
aS'r'
aS'l'
aS'o'
aS'k'
ag2601
aa(lp2698
g1602
aa(lp2699
g1703
aa(lp2700
g1139
aa(lp2701
g2154
aa(lp2702
g729
aa(lp2703
g833
aa(lp2704
g1985
aa(lp2705
S'b'
aS'r'
aS'i'
aS't'
aS'n'
aS'e'
aS'y'
ag433
aS's'
aS'p'
aS'i'
aS'r'
aS's'
ag434
aa(lp2706
g888
aa(lp2707
g1474
aa(lp2708
S'b'
aS'r'
aS'i'
aS't'
aS'n'
aS'e'
aS'y'
ag2333
aS's'
aS'p'
aS'i'
aS'r'
aS's'
ag2334
aa(lp2709
g2556
aa(lp2710
g1795
aa(lp2711
g1784
aa(lp2712
g2210
aa(lp2713
g2345
aa(lp2714
g2368
aa(lp2715
g1896
aa(lp2716
S'b'
aS'r'
aS'a'
aS'z'
aS'i'
aS'l'
ag980
aa(lp2717
g192
aa(lp2718
g2425
aa(lp2719
g2436
aa(lp2720
g1361
aa(lp2721
g270
aa(lp2722
g1659
aa(lp2723
g2007
aa(lp2724
g294
aa(lp2725
g628
aa(lp2726
g1441
aa(lp2727
g1060
aa(lp2728
g1963
aa(lp2729
g1311
aa(lp2730
g2073
aa(lp2731
g549
aa(lp2732
g1219
aa(lp2733
g685
aa(lp2734
g2199
aa(lp2735
g2176
aa(lp2736
g468
aa(lp2737
g363
aa(lp2738
g408
aa(lp2739
S'l'
aS'i'
aS'n'
aS'd'
aS's'
aS'e'
aS'y'
ag1750
aS'l'
aS'o'
aS'h'
aS'a'
aS'n'
ag1751
aa(lp2740
g800
aa(lp2741
S'o'
aS'l'
aS's'
aS'e'
aS'n'
ag1384
aa(lp2742
S'e'
aS'm'
aS'm'
aS'a'
ag2517
aS'u'
aS'o'
aS't'
aS's'
aS'o'
aS'n'
ag2518
ag2519
ag2520
ag2521
ag2522
ag2523
ag2524
ag2525
ag2526
ag2527
ag2528
aS'g'
aS'e'
aS'r'
aS'm'
aS'i'
aS'o'
aS'n'
aS'a'
ag2529
aS'h'
aS'a'
aS'r'
aS'r'
aS'y'
ag2530
aS'p'
aS'o'
aS't'
aS't'
aS'e'
aS'r'
ag2531
ag2532
ag2533
aS'e'
aS'r'
ag2534
aa(lp2743
S'o'
aS'l'
aS's'
aS'e'
aS'n'
ag1014
aa(lp2744
g1116
aa(lp2745
g1025
aa(lp2746
g560
aa(lp2747
g386
aa(lp2748
g69
aa(lp2749
S'c'
aS'h'
aS'y'
aS'u'
ag2380
aS'h'
aS'e'
aS'f'
aS'n'
aS'e'
aS'r'
ag2381
aa(lp2750
g2254
aa(lp2751
S'b'
aS'r'
aS'a'
aS'z'
aS'i'
aS'l'
ag1197
aa(lp2752
g1418
aa(lp2753
g2051
aa(lp2754
S'c'
aS'h'
aS'y'
aS'u'
ag2142
aS'l'
aS'o'
aS'r'
aS'i'
ag2143
aa(lp2755
S'd'
aS'o'
aS'k'
aS't'
aS'o'
aS'r'
ag1737
aS'h'
aS'a'
aS'u'
aS's'
ag1738
aa(lp2756
S'd'
aS'o'
aS'c'
aS't'
aS'o'
aS'r'
ag911
aS'h'
aS'a'
aS'u'
aS's'
ag912
aa(lp2757
g1256
aa(lp2758
S'd'
aS'o'
aS'k'
aS't'
aS'o'
aS'r'
ag95
aS'h'
aS'a'
aS'u'
aS's'
ag96
aa(lp2759
g1840
aa(lp2760
S's'
aS'c'
aS'h'
aS'w'
aS'a'
aS'r'
aS'z'
aS'n'
aS'e'
aS'g'
aS'e'
aS'r'
ag2096
aa(lp2761
g248
aa(lp2762
g1485
aa(lp2763
S's'
aS'c'
aS'h'
aS'w'
aS'a'
aS'r'
aS'z'
aS'n'
aS'e'
aS'g'
aS'e'
aS'r'
ag133
aa(lp2764
g2545
aa(lp2765
g811
aa(lp2766
S'c'
aS'o'
aS'm'
aS'e'
aS'd'
aS'i'
aS'e'
aS'n'
ag617
aa(lp2767
g305
aa(lp2768
g1395
aa(lp2769
g2321
aa(lp2770
g605
aa(lp2771
g181
aa(lp2772
g1463
aa(lp2773
g170
aa(lp2774
g259
aa(lp2775
g1513
aa(lp2776
S'l'
aS'o'
aS's'
aS't'
ag146
aa(lp2777
g2243
aa(lp2778
g1681
aa(lp2779
g899
aa(lp2780
g2062
aa(lp2781
g775
aa(lp2782
g1817
aa(lp2783
g1557
aa(lp2784
g1874
aa(lp2785
g1714
aa(lp2786
g2084
aa(lp2787
S'o'
aS's'
aS'b'
aS'o'
aS'r'
aS'n'
ag1128
aa(lp2788
g2221
aa(lp2789
g479
aa(lp2790
g844
aa(lp2791
g526
aa(lp2792
g2276
aa(lp2793
g1372
aa(lp2794
S'o'
aS'l'
aS's'
aS'e'
aS'n'
ag158
aS's'
aS'c'
aS'h'
aS'w'
aS'e'
aS's'
aS't'
aS'e'
aS'r'
ag159
aa(lp2795
g1289
aa(lp2796
g855
aa(lp2797
S's'
aS'p'
aS'i'
aS'r'
aS's'
ag2460
aa(lp2798
S'b'
aS'r'
aS'i'
aS't'
aS'n'
aS'e'
aS'y'
ag283
aa(lp2799
S'f'
aS'r'
aS'i'
aS'e'
aS'n'
aS's'
ag317
aS'd'
aS's'
ag318
aa(lp2800
g2589
aa(lp2801
g2165
aa(lp2802
g1725
aa(lp2803
g1173
aa(lp2804
S'o'
aS's'
aS'k'
aS'a'
aS'r'
ag1049
aa(lp2805
S'l'
aS'e'
aS'o'
aS'n'
aS'a'
aS'r'
aS'd'
aS'o'
ag1231
aS'd'
aS'i'
ag1232
aS'k'
aS'a'
aS'p'
aS'r'
aS'o'
ag1233
aS'i'
aS'o'
ag1234
aa(lp2806
S'o'
aS's'
aS'k'
aS'a'
aS'r'
ag1105
aa(lp2807
S't'
aS'i'
aS't'
aS'a'
aS'n'
aS'i'
aS'c'
ag538
aa(lp2808
g2287
aa(lp2809
g1591
aa(lp2810
S'b'
aS'r'
aS'a'
aS'z'
aS'i'
aS'l'
ag1569
aa(lp2811
S'd'
aS'o'
aS'k'
aS't'
aS'o'
aS'r'
ag120
aS'h'
aS'a'
aS'u'
aS's'
ag121
aa(lp2812
S's'
aS'e'
aS'r'
aS'i'
aS'a'
aS'l'
aS'e'
ag502
ag503
aS'c'
aS'o'
aS'm'
aS'e'
aS'd'
aS'i'
aS'e'
aS'n'
ag504
aa(lp2813
S'b'
aS'r'
aS'a'
aS's'
aS'i'
aS'l'
ag2188
aa(lp2814
g397
aa(lp2815
g822
aa(lp2816
g1919
aa(lp2817
g1267
aa(lp2818
g515
aa(lp2819
g82
aa(lp2820
g945
aa(lp2821
S's'
aS'e'
aS'r'
aS'i'
aS'a'
aS'l'
ag1185
aa(lp2822
g2298
aa(lp2823
g2232
aa(lp2824
g1773
aa(lp2825
g1071
aa(lp2826
S'c'
aS'o'
aS'm'
aS'e'
aS'd'
aS'i'
aS'e'
aS'n'
ag1162
aa(lp2827
g2494
aa(lp2828
g445
aa(lp2829
g1546
aa(lp2830
g1208
aa(lp2831
g1150
aa(lp2832
g2623
aa(lp2833
g594
aa(lp2834
S'r'
aS'e'
aS'p'
ag1908
aa(lp2835
S'c'
aS'o'
aS'm'
aS'e'
aS'd'
aS'i'
aS'e'
aS'n'
ag1339
aa(lp2836
g1452
aa(lp2837
g2505
aa(lp2838
g2130
aa(lp2839
S'p'
aS'a'
aS't'
aS'r'
aS'i'
aS'k'
ag1829
aa(lp2840
S'c'
aS'o'
aS'm'
aS'e'
aS'd'
aS'i'
aS'e'
aS'n'
ag572
aa(lp2841
g2567
aa(lp2842
S'p'
aS'a'
aS't'
aS'r'
aS'i'
aS'k'
ag1863
aa(lp2843
g1952
aa(lp2844
g1762
aa(lp2845
g2578
aa(lp2846
g740
aa(lp2847
g2392
aa(lp2848
g934
aa(lp2849
g1245
aa(lp2850
g1350
aa(lp2851
g1278
aa(lp2852
g214
aa(lp2853
g2265
aa(lp2854
g2403
aa(lp2855
g2040
aa(lp2856
g707
aa(lp2857
g662
aa(lp2858
g639
aa(lp2859
g718
aa(lp2860
g1996
aa(lp2861
g696
aa(lp2862
g2029
aa(lp2863
g923
aa(lp2864
g1930
aa(lp2865
S'b'
aS'r'
aS'e'
aS'd'
ag1497
ag1498
ag1499
ag1500
aS'b'
aS'r'
aS'e'
aS'd'
ag1501
aS'p'
aS'i'
aS't'
ag1502
aa(lp2866
g2612
aa(lp2867
S'g'
ag751
ag752
aa(lp2868
S'b'
aS'r'
aS'e'
aS'd'
ag1636
aS'p'
aS'i'
aS't'
ag1637
aa(lp2869
g1300
aa(lp2870
g2107
aa(lp2871
g1941
aa(lp2872
g2414
aa(lp2873
g956
aa(lp2874
g1535
aa(lp2875
S'b'
aS'o'
aS'k'
aS's'
ag674
aa(lp2876
g1806
aa(lp2877
g1002
aa(lp2878
S'b'
aS'o'
aS'k'
aS's'
ag1407
aa(lp2879
S'm'
aS'e'
aS'r'
aS'f'
aS'i'
ag1430
aa(lp2880
g1851
aa(lp2881
S'm'
aS'e'
aS'r'
aS'f'
aS'i'
ag375
aa(lp2882
S'c'
aS'o'
aS'm'
aS'e'
aS'd'
aS'i'
aS'e'
aS'n'
ag457
aa(lp2883
S'c'
aS'o'
aS'm'
aS'e'
aS'd'
aS'i'
aS'e'
aS'n'
ag764
aa(lp2884
g1885
aa(lp2885
g107
aa(lp2886
g1524
aa(lp2887
g329
aa(lp2888
g1082
aa(lp2889
g1093
aa(lp2890
g1974
aa(lp2891
g203
aa(lp2892
g1670
aa(lp2893
g1624
aa(lp2894
g866
aa(lp2895
g490
aa(lp2896
g991
aa(lp2897
S'l'
aS'a'
aS'u'
aS'f'
aS'e'
aS'n'
ag651
aatbsg19
g2653
(g2654
(I0
tS'b'
tRp2898
(I1
(I224
I1
tg2656
I00
(lp2899
Nag71
aNaNaNaNaNaNaNaNaNaNaNaNaNaNaNaNaNaNag71
ag71
ag71
ag216
ag71
aNaNaNag71
ag71
aNaNaNaNaNaNaNaNaNaNag216
aNag71
aNaNaNaNaNaNaNaNaNaNaNaNaNaNaNag71
aNag71
aNaNag71
ag216
ag71
ag216
ag71
ag71
ag71
aNaNaNaNag71
ag71
aNaNag71
aNag71
ag71
ag71
aNag71
aNaNag71
aNaNaNaNaNaNaNaNaNaNag71
ag71
aNag216
ag71
ag216
ag71
aNaNaNaNaNag71
ag71
ag71
aNag71
ag71
aNaNaNaNag71
ag71
ag71
aNaNag71
aNaNaNaNag71
ag216
ag71
ag71
ag71
aNag216
ag71
ag71
aNaNaNaNaNag216
aNaNag71
aNag216
ag71
ag71
ag216
ag71
ag71
aNaNaNaNaNaNag216
ag71
aNaNag71
ag71
ag216
ag216
ag216
aNag216
aNaNaNaNaNaNag216
aNag71
aNaNaNaNag71
aNaNaNaNag216
ag71
ag71
ag71
ag71
aNaNaNaNaNaNaNaNag71
aNag71
aNag71
ag71
ag71
aNaNaNaNaNaNaNaNaNaNaNaNaNaNatbsg23
g2653
(g2654
(I0
tS'b'
tRp2900
(I1
(I224
I1
tg2656
I00
(lp2901
NaNaNaNaNag136
ag136
ag136
ag136
ag136
ag136
ag136
ag136
ag136
ag136
ag110
ag110
ag110
aNag110
aNaNaNaNaNaNaNaNaNaNaNaNaNaNaNag136
ag136
aNag110
ag110
aNaNaNaNaNag110
ag110
aNaNag110
ag136
ag136
ag136
ag136
ag136
aNaNag110
aNaNaNaNaNaNaNaNaNaNaNaNag136
ag136
ag136
ag136
aNaNaNaNaNaNaNaNaNag110
aNag136
ag136
aNaNag136
ag136
ag136
aNag136
ag136
aNaNaNaNaNaNaNaNaNaNaNaNag136
ag136
ag136
aNaNaNaNaNaNag110
aNag110
aNaNaNaNaNaNaNag110
ag136
aNag136
aNaNaNaNaNaNaNaNaNaNaNaNag110
aNaNaNag110
aNaNaNaNaNaNaNaNaNag110
ag110
aNag110
aNaNaNaNaNaNaNaNaNaNaNaNag136
ag110
ag110
aNaNaNaNaNaNag136
ag136
ag136
ag110
aNag110
aNag110
aNaNaNaNaNaNag136
ag136
ag136
ag136
ag136
ag110
ag110
aNaNag110
aNaNaNaNaNaNag110
aNaNaNaNaNaNaNag136
aNaNag110
ag110
atbsg21
g2653
(g2654
(I0
tS'b'
tRp2902
(I1
(I224
I1
tg2656
I00
(lp2903
g85
aNag85
ag85
ag85
aNaNaNaNaNaNaNaNaNaNaNaNaNag273
aNaNaNaNaNaNag85
ag85
ag85
aNaNag85
ag85
ag85
ag85
ag85
aNaNag273
aNaNaNag85
aNag85
ag85
aNaNag273
ag85
aNaNaNaNaNaNag85
ag85
aNaNag85
aNag85
ag85
aNaNaNaNaNaNaNaNaNaNaNaNaNag273
ag85
aNag273
aNaNaNaNaNaNaNaNag273
aNaNaNag273
aNaNag85
ag85
ag85
aNaNag85
aNaNaNaNag85
ag85
aNaNaNaNaNaNag273
aNaNaNag273
aNag273
aNaNaNag85
ag85
aNaNaNag273
aNaNaNaNaNaNag85
aNaNaNag85
ag85
ag273
aNag85
aNag85
aNaNag85
aNaNaNaNaNaNag85
aNaNag85
aNag85
aNaNag85
ag85
aNaNaNaNaNag85
aNaNaNaNag273
ag273
ag85
aNag85
aNaNaNaNaNaNaNag85
aNag85
aNaNaNaNaNaNaNaNaNaNaNaNag85
aNaNaNag85
aNaNaNag273
aNag85
ag85
ag273
ag85
ag85
ag85
ag85
aNag85
ag273
aNaNatbsg24
g2653
(g2654
(I0
tS'b'
tRp2904
(I1
(I224
I1
tg2656
I00
(lp2905
NaNaNaNaNaF1.2270000000000001
aF1.371
aF10.773
aF2.6259999999999999
aF1.7450000000000001
aF1.482
aF0.77200000000000002
aF1.5029999999999999
aF1.081
aF1.7110000000000001
aF8.7539999999999996
aF2.1629999999999998
aF1.363
aNaF2.109
aNaNaNaNaNaNaNaNaNaNaNaNaNaNaNaF2.677
aF0.96299999999999997
aNaF0.79600000000000004
aF6.2439999999999998
aNaNaNaNaNaF4.3419999999999996
aF1.9279999999999999
aNaNaF1.1359999999999999
aF4.2279999999999998
aF6.4509999999999996
aF0.89600000000000002
aF0.71199999999999997
aF0.72399999999999998
aNaNaF3.8210000000000002
aNaNaNaNaNaNaNaNaNaNaNaNaF0.879
aF8.25
aF1.8939999999999999
aF1.413
aNaNaNaNaNaNaNaNaNaF3.1400000000000001
aNaF6.9279999999999999
aF2.246
aNaNaF6.2889999999999997
aF2.2120000000000002
aF2.9790000000000001
aNaF2.3420000000000001
aF0.996
aNaNaNaNaNaNaNaNaNaNaNaNaF2.194
aF0.88
aF0.70799999999999996
aNaNaNaNaNaNaF6.9119999999999999
aNaF1.345
aNaNaNaNaNaNaNaF2.5960000000000001
aF0.91800000000000004
aNaF6.9420000000000002
aNaNaNaNaNaNaNaNaNaNaNaNaF1.728
aNaNaNaF10.976000000000001
aNaNaNaNaNaNaNaNaNaF3.73
aF0.74199999999999999
aNaF5.6420000000000003
aNaNaNaNaNaNaNaNaNaNaNaNaF8.0090000000000003
aF3.7010000000000001
aF1.8260000000000001
aNaNaNaNaNaNaF1.4850000000000001
aF1.355
aF1.6739999999999999
aF4.0359999999999996
aNaF3.0739999999999998
aNaF4.7290000000000001
aNaNaNaNaNaNaF1.0980000000000001
aF0.81299999999999994
aF0.97799999999999998
aF1.8460000000000001
aF1.01
aF6.2320000000000002
aF2.8780000000000001
aNaNaF1.893
aNaNaNaNaNaNaF6.1500000000000004
aNaNaNaNaNaNaNaF0.749
aNaNaF1.9910000000000001
aF1.661
atbsg28
g2653
(g2654
(I0
tS'b'
tRp2906
(I1
(I224
I1
tg2656
I00
(lp2907
(lp2908
F1.6831386620597186
aF1.7832790999655117
aF2.3162839322103537
aF3.1485899110539322
aF3.3322844865197112
aF3.5154135251505068
aF4.3149064987646852
aF4.5481617326277046
aF6.3645643537929573
aF7.3144481027720758
aF7.4310715495503246
aF7.5139780303525185
aF8.1472474427337147
aF8.2804613600073935
aF9.096827732924794
aF9.180039597200448
aF36.586097930578035
aa(lp2909
F0.43372120028652716
aa(lp2910
F1.4999538075408054
aF1.8331768991502031
aF1.999794379404193
aF2.5994013585714129
aF3.7156209421191306
aF3.9822351504062681
aF4.3322212926686916
aF4.4988262624647177
aF4.8154431653110805
aa(lp2911
F1.499686276221837
aF1.9996930126217194
aF2.149489701649145
aF3.4655426715671638
aF3.6156056087911566
aF4.2320192648221564
aF4.3485384577888908
aF4.7481596796296799
aF5.1483801203066832
aF5.4150337846513139
aF5.9645543454280414
aF6.0813224644189177
aF7.0143729117171461
aa(lp2912
F0.60021935002077953
aF0.8668483142319019
aF1.5665893156838138
aF1.9665463951914717
aF2.3329488238887279
aF3.8491200336684415
aF4.0489309653712553
aF4.2322300179130252
aF4.5320582076292339
aF5.2318607990273449
aF5.5148896898426756
aF6.0481585248180636
aF7.1810760404841858
aF7.3478179837511561
aF7.8641406021451985
aF8.114198342716918
aF9.4468706534171361
aa(lp2913
F0.78350877913362638
aF1.2995279387378105
aF1.4330331251239841
aF1.7662273464484315
aF2.1660102418936731
aF2.5162020047519036
aF3.0323799509333185
aa(lp2914
F0.73335627986489271
aF1.3996683766417846
aF1.5330766871793458
aF1.8994919471133471
aF2.282806589610118
aF2.6323410722798144
aF3.4822454153982108
aa(lp2915
F1.0833119479357265
aa(lp2916
F1.2667264816227544
aF1.7999940334739222
aF1.9495716291057761
aF2.7494258020815323
aF3.1159668081527343
aF3.4326077695714048
aF4.3821171671716002
aa(lp2917
F0.43376514727606263
aa(lp2918
F0.3670808804272383
aF1.1167520799426711
aF1.4166444258535194
aF1.783122558856121
aF2.1330807931753952
aF2.7661067328062927
aa(lp2919
F0.51697284140209376
aF1.5333458224049537
aF1.8664643394222367
aF2.2163587383311096
aF2.5661248248543416
aF3.2325504780928895
aa(lp2920
F1.2500664016588416
aF1.6332302771024843
aF2.099827676467612
aF2.216470370103707
aF2.2831158224562387
aF2.8327361461106193
aa(lp2921
F1.149977288707305
aF1.599946365422511
aF2.1330846425462369
aF2.2329158476059092
aF2.2996078131982358
aF2.9325997500473022
aa(lp2922
F1.5168980994367303
aF2.1497931604371843
aF2.6163620102961431
aF2.766455742492326
aF2.8826442102890724
aF3.9325930136474199
aa(lp2923
F0.66686319846849074
aa(lp2924
F0.66671339375898242
aa(lp2925
F0.35052858286690025
aa(lp2926
F1.0331831864587002
aa(lp2927
F2.4826361266077583
aa(lp2928
F10.663308624645651
aa(lp2929
F1.5829045561149542
aa(lp2930
F0.10051799709435727
aa(lp2931
F0.48365332303364994
aF0.71694608826874173
aF0.98353014314488973
aF1.3001156094578619
aF1.4499523961039813
aF1.9331861376431334
aF2.0830854765772528
aF2.6327988267112232
aF4.1655743005685508
aa(lp2932
F0.88367969122919021
aa(lp2933
F0.40030352294525073
aa(lp2934
F0.69977724970158306
aa(lp2935
F0.53464306060959643
aa(lp2936
F16.727098164106792
aa(lp2937
F0.78340741234933375
aa(lp2938
F0.21689091394364368
aa(lp2939
F1.6166863198468491
aF2.2829884724142175
aF2.4162456951198692
aF2.4996506695333665
aF3.2492471270852548
aF3.3660675333740073
aF3.7491451187397615
aF3.9986158301544492
aF5.0319440096081962
aF5.5648272658672795
aF5.6491817519254255
aF6.4813857224235107
aF6.8310764254219976
aF9.0969294204896869
aa(lp2940
F1.066033081498972
aa(lp2941
F0.36689258200385666
aa(lp2942
F0.90019541976107575
aF1.3497141200077749
aF1.7661548499509081
aF2.1996053111051879
aF2.5828137751032045
aF3.3659831679815397
aF3.7990220671636052
aF4.7486257743657916
aF5.1650129338886472
aF5.6149685378022696
aF5.964847539224138
aF6.8146421752535389
aF6.9974722460301564
aF8.0473867258260725
aa(lp2943
F0.30039597201903234
aa(lp2944
F0.23370528954910696
aa(lp2945
F0.40044113797739556
aa(lp2946
F0.15037730256517534
aa(lp2947
F0.31706631697306875
aa(lp2948
F0.65020536397059914
aa(lp2949
F0.13277829672915686
aa(lp2950
F10.812732886977756
aF11.179464436940179
aF12.212352504915543
aF12.578874584909499
aF12.662366490965724
aF13.495024045741957
aF13.844920048553831
aa(lp2951
F1.066663736866758
aa(lp2952
F0.71690727377244912
aa(lp2953
F0.65008346720605914
aa(lp2954
F0.18372601199916971
aa(lp2955
F0.91667907019655104
aa(lp2956
F0.43339817385822244
aa(lp2957
F0.083694960401771823
aa(lp2958
F1.4502802342467476
aa(lp2959
F0.78346483214045293
aa(lp2960
F0.25067620626396092
aa(lp2961
F0.60005094001644466
aa(lp2962
F0.18346072614440345
aa(lp2963
F0.85000988005413092
aa(lp2964
F0.23368411800765898
aa(lp2965
F0.75022518823425344
aa(lp2966
F0.63368963543871359
aa(lp2967
F0.71714272699682624
aa(lp2968
F0.2501825243653002
aa(lp2969
F0.30052813377369603
aa(lp2970
F0.93347387816538685
aa(lp2971
F50.363992722121111
aa(lp2972
F1.4500082119920989
aa(lp2973
F0.99990376571076922
aF1.2664522139020846
aF1.5494419694405224
aF2.3493291828544898
aF2.5658608221219765
aF2.7491172107966122
aF3.3656688026403572
aF3.5653533466429508
aF4.4152657092854497
aF4.6152460133343993
aF5.9644975671963039
aF6.0645613384513126
aF6.1977123826582101
aF6.9975210047359724
aa(lp2974
F36.069533764120933
aa(lp2975
F34.137383107417918
aF34.370527992630741
aF34.570410779268059
aF34.753603332530474
aF34.853695974070433
aF35.420218567314805
aa(lp2976
F0.75007730821198493
aF1.1165503087195248
aF1.832941445925826
aF2.1328758141426079
aF2.4325314237030398
aF5.0150808752950979
aF5.2648216842790134
aF6.2311656666861381
aF7.3807881716511474
aF7.7306463223103492
aF8.4135819300227013
aF10.246408215585689
aF10.445969900480122
aF10.596094748430914
aF10.762750401618177
aF10.912541316587522
aF11.295926210113976
aF24.274079422799332
aF24.457478238218755
aF24.607129292689933
aF24.873939177363354
aF25.257138017932448
aF25.840087162601776
aF26.156519616397418
aF26.290040521051196
aF26.756256832633881
aF27.006304949778496
aF27.139725129211001
aF28.188959232589696
aF28.555837700230768
aF28.972072809579913
aF30.055234311244931
aF30.388438155996482
aF30.70488985664997
aF30.838298487966313
aF31.521331613092116
aF32.287574036245132
aF32.754054029777762
aF32.970727775011255
aF33.620356374814946
aF33.77033109727563
aF33.987000030794661
aF34.153535391122205
aF35.769619284325017
aF35.902854693924382
aF36.069405130954692
aF36.935897378321897
aF37.369012623372328
aF38.951698406874129
aa(lp2977
F0.71716678556913394
aF0.90053352289396571
aF1.3836306117427739
aF1.5499802398935572
aF1.8834506536240951
aF2.4824763776905456
aa(lp2978
F0.66690169218418305
aa(lp2979
F0.61690541324242076
aa(lp2980
F0.85028767636504199
aa(lp2981
F1.7998763068626431
aa(lp2982
F10.030012587445526
aa(lp2983
F1.8163259545162873
aF2.0996278299298865
aF3.8489407171127823
aF3.9656257538354112
aF4.1489042763951147
aF6.3814345452865382
aF6.4811817057343433
aF6.6813355522826896
aF7.1974740424047923
aF7.3476380256324774
aF7.5142301641881204
aF8.3638012158880883
aa(lp2984
F0.25035799155193672
aa(lp2985
F0.85020523565981421
aF1.2666292849917227
aF1.5998113166388066
aF2.1663772153133323
aF2.5994305496387824
aF2.8158701247721183
aF3.4156785543818842
aa(lp2986
F26.840137525212413
aa(lp2987
F0.81669036168750608
aa(lp2988
F1.9660405236172664
aF3.0658133465403807
aF4.8317920877452707
aF4.9149959324968222
aF5.5481344662457559
aF6.3811156890114944
aF6.56446317947848
aF7.0476568233953003
aF7.1142265714406676
aF7.7973042851208447
aa(lp2989
F1.4496896764976555
aF1.5831454626168124
aF1.7495794561600633
aF2.3495081786313676
aF2.7993162233033217
aF2.8824478923397692
aF3.3156067636009539
aF4.5650203760051227
aF5.8146440999389597
aF5.9313936136350094
aF6.4144945518546592
aF6.5476905053965311
aa(lp2990
F2.0828288518096088
aF2.2161194357340719
aF3.0324842047448328
aF4.0818398841074668
aF4.2321273680045124
aF4.365225483352333
aF5.7482283267545426
aF6.581092785250803
aF6.7474494705838879
aF6.964329157193788
aF7.3474218192641274
aF8.7799779431006755
aa(lp2991
F0.60022319939162116
aa(lp2992
F2.8159371679903415
aF2.932699192144355
aF4.7320221518493781
aF5.6483560617325566
aF5.7815443165309262
aF5.8981825192331598
aF7.1311243500967976
aF7.2810021967070497
aF8.080678336249548
aF8.2138723651041801
aF8.2805386682193785
aF9.4466720900018117
aa(lp2993
F0.25019952575712523
aa(lp2994
F10.229904676729348
aF10.446444656301537
aF10.796357339724636
aF11.562512189675545
aF11.795700380316703
aF12.062374253862799
aF12.34568094099086
aF13.661578652923708
aF14.711337874736273
aF15.011097096547019
aF15.344328207680519
aF15.527677622832925
aF16.077569647961354
aa(lp2995
F34.186971994538908
aa(lp2996
F0.18375456150533864
aa(lp2997
F1.4998582148145942
aF1.7163667578533932
aF2.2828778029834211
aF3.0151001221529441
aF3.2650452686084463
aF3.6822440039613866
aF3.8819975158712623
aF5.3312361743410293
aF6.0312116666755173
aF6.3978521148437721
aF6.7809794212589622
aF6.9306763474087347
aF8.2969520676251705
aa(lp2998
F0.56720681903425429
aa(lp2999
F0.7335022352017404
aa(lp3000
F9.9136088756240497
aF10.313379581393747
aF10.679968383827145
aF11.462991821368632
aF11.646179562916586
aF12.64582157136465
aF13.178856557018662
aF13.561975523129149
aF15.194717571610454
aa(lp3001
F0.98312852538401785
aa(lp3002
F0.56686197949966299
aa(lp3003
F0.18395633273030398
aa(lp3004
F1.7163183199281775
aa(lp3005
F1.8331149884270417
aa(lp3006
F8.0473081344916864
aa(lp3007
F0.86723645919482806
aa(lp3008
F3.3998419191430003
aa(lp3009
F0.8835058279473742
aa(lp3010
F20.292087745141544
aF20.408978402459979
aF21.142034431344655
aF21.258774963174801
aF22.025046256614587
aa(lp3011
F0.36712354429619154
aa(lp3012
F1.4501371659389406
aa(lp3013
F2.1329579340672353
aa(lp3014
F0.6003508702142426
aa(lp3015
F0.75023994415823836
aa(lp3016
F0.1504327976708737
aa(lp3017
F0.85001052161533153
aa(lp3018
F0.54974350354495982
aa(lp3019
F0.26704726258503797
aa(lp3020
F0.50026464429356565
aa(lp3021
F1.0666053547320189
aF1.2331593203562079
aF1.7662668025077437
aF1.8827090080430935
aF2.6490714032752294
aF2.7492249932001869
aF3.5656446157554456
aa(lp3022
F2.8828896077247919
aa(lp3023
F1.2494825803114509
aa(lp3024
F0.30023750622422085
aa(lp3025
F0.20043934160457866
aa(lp3026
F0.11739717045566067
aa(lp3027
F0.19939487879673834
aa(lp3028
F1.9663279433571006
aF2.166181859707649
aF2.5828519480382965
aF2.8160427049278951
aF2.9657973716493871
aF8.4305570168908162
aF9.2134627278192056
aF9.4466894121760561
aF9.7298886376811424
aF10.212898474108442
aF10.363136557738471
aF10.596399490343174
aF10.896281250481479
aF11.179304367240547
aF11.312731603853535
aF11.629181379819784
aa(lp3029
F2.7330101572079002
aa(lp3030
F9.9795284006631846
aa(lp3031
F0.68339432448556181
aF1.3499992942815879
aF1.666547550003088
aF2.3492685552537296
aF2.8659026519599138
aF3.2159288918428501
aa(lp3032
F1.5163027299731766
aF1.8662988164451235
aF2.2162422948404128
aF3.7331230721047177
aF3.9654037734089798
aF6.0146580859891401
aF6.6312417559292953
aF9.8797238204242603
aa(lp3033
F16.010657947412255
aF16.193890598295184
aF16.443957641515226
aF16.893808029275533
aF17.226799517031395
aF17.843403075390597
aF19.144325769746501
aF20.35892887387854
aF20.525681082135634
aF22.724565598422487
aa(lp3034
F0.1170192904828582
aa(lp3035
F0.050730225779261673
aa(lp3036
F0.30016661362969899
aa(lp3037
F0.63346188095783873
aa(lp3038
F1.2332581208902411
aF1.5999999358427885
aF1.7330813705812034
aF1.8165735974162089
aF2.7994811047174153
aF2.999327963887481
aa(lp3039
F1.1998670683697128
aF1.8160734999000852
aF1.9830358196850284
aF3.2489064577057434
aF3.6988816292596312
aF4.0154632461999427
aF4.2653253103871975
aF4.3987140532844933
aF4.9151245656612446
aF6.081196718281717
aF6.1810962496856519
aF6.4144223761395551
aF7.5974253478543687
aF8.2471100843267777
aF8.6635767975276394
aF8.9800965037429705
aF9.1134464321457926
aF10.146212282574197
aF10.479529042224385
aF10.612790435081479
aF12.09549649193832
aa(lp3040
F1.0666688693636388
aF1.3835587568082701
aF1.533724664719557
aF1.6002661840411747
aF1.8833845727458538
aF3.5826822549115604
aa(lp3041
F1.1670701021885179
aF1.2836104666985193
aF1.3836389520474768
aF2.3998685439619294
aF2.8496323208637477
aF3.4828821656046784
aF4.6991421033999359
aF7.9809594045273116
aa(lp3042
F0.23357954341372533
aa(lp3043
F0.75007538352656411
aa(lp3044
F1.3000158465802087
aF1.8166297340849269
aF2.532991038662658
aF2.9830371028092486
aF3.266012743986721
aF3.482639975980419
aF4.0824214599906554
aa(lp3045
F3.4157196143441979
aF3.5491471717377863
aF3.7489888984127901
aF4.2487791076637222
aF4.3655392071323149
aF4.4487590909320716
aF5.1650594471284421
aF5.2817287655834662
aF5.848199392312381
aF5.998064407684069
aF6.0647807526293036
aF6.931007393359323
aa(lp3046
F1.8830567346049065
aF2.0495972274256928
aF3.2158246380313358
aF3.3823846984923875
aF3.9988576989999274
aF4.098728360117093
aF10.846043744259077
aF13.694895605045531
aF27.18958860483508
aF27.955961585839759
aF28.056095928905052
aF29.338830342800065
aF29.472081149884616
aF30.105020478657025
aF30.238524061138378
aF30.321890862618602
aF31.137781196590367
aF31.221321219789388
aa(lp3047
F0.88335730636390508
aF1.3999782510509249
aF2.132759370651911
aF2.3327935659035575
aF2.7327747039835231
aF2.9820747599260358
aF3.5324527682114422
aa(lp3048
F0.96678601856910973
aa(lp3049
F0.83346271498703572
aa(lp3050
F0.16684523473486479
aa(lp3051
F0.53374551548222371
aa(lp3052
F0.65042574049221002
aa(lp3053
F46.449473470131124
aa(lp3054
F0.21748339637815661
aa(lp3055
F5.0648991208036023
aF5.231417800519921
aF5.8146081724717078
aF5.9147251933663938
aF6.447667794105655
aF6.5310644282144494
aF7.3807865677463269
aa(lp3056
F0.21707151362534205
aa(lp3057
F0.51692119566723704
aa(lp3058
F3.6161409922151506
aa(lp3059
F0.20058593850262696
aa(lp3060
F1.3165357452653552
aF1.4333545476474683
aF1.7663104287184979
aF1.9830707848104794
aF2.1996550321564428
aF2.4828783162338368
aF2.5660526491374185
aF3.0326715408264135
aF3.3159554525063868
aa(lp3061
F0.23352629377222911
aa(lp3062
F1.3000921924467548
aa(lp3063
F0.50048951174721878
aa(lp3064
F0.65004112411952519
aa(lp3065
F0.65009244907378161
aa(lp3066
F0.16697835883314838
aa(lp3067
F0.66692061825960991
aa(lp3068
F2.6157749811372923
aF2.7829102018604317
aF3.1321325646549667
aF5.2646875978371099
aa(lp3069
F1.2999824853595783
aF1.4497236792813055
aF1.8495883738723933
aF2.0164563840553456
aF2.2159968974065123
aF2.3669291510341282
aF2.8493776207815245
aF2.9660052377130341
aF3.5989307729032589
aa(lp3070
F0.23357120310902246
aa(lp3071
F0.11762235868991411
aa(lp3072
F0.31722799057570228
aa(lp3073
F9.9300116892591177
aF10.112854591274299
aF10.6128555536161
aF10.763194041686802
aF10.896293119376423
aF11.129484517827223
aF11.86208760399677
aa(lp3074
F33.470687677390742
aF33.870363111214829
aF34.153638682590099
aF34.719981317715792
aF34.920036684510706
aF35.219778904929626
aF35.786368541395859
aF36.252464880899424
aF39.434783626826174
aa(lp3075
F0.15019574054167606
aa(lp3076
F1.7828043441440968
aF1.9494818104358274
aF2.3663912013635127
aF2.5497730153911107
aF2.6830831669540203
aF2.8656835585643421
aF3.4495135677516373
aa(lp3077
F0.38346284329963964
aa(lp3078
F0.31699734906578669
aa(lp3079
F0.00028838208345405292
aa(lp3080
F1.0501056652483385
aa(lp3081
F0.25046801942153252
aa(lp3082
F0.63322225758020068
aa(lp3083
F0.63343621847889153
aa(lp3084
F0.75034740577939374
aa(lp3085
F0.66684780098330521
aa(lp3086
F1.1333451166865416
aa(lp3087
F0.23393913887048257
aa(lp3088
F0.61682233097417338
aa(lp3089
F0.033655376031674678
aa(lp3090
F1.1498509010089037
aa(lp3091
F0.70009546441360726
aa(lp3092
F0.91677722917120263
aa(lp3093
F2.3494029624762334
aa(lp3094
F0.23358275122336636
aa(lp3095
F0.68382769956406264
aa(lp3096
F0.53357518079246802
aa(lp3097
F0.68397076787186961
aa(lp3098
F1.5162417815918161
aa(lp3099
F4.3319720458639495
aF4.7984106586518465
aF4.9817138813468773
aF5.1815690808216459
aF5.9648177065955679
aF6.2146682226684788
aF6.6642886104782519
aF7.0648474750687456
aF10.196413219768147
aF10.646262645184834
aF10.846227551748598
aF10.995841716408904
aF11.295701984221523
aF12.062255885688501
aF12.162091581680215
aF12.845421108413575
aF12.92863489737465
aa(lp3100
F0.3500929623223783
aa(lp3101
F97.878492021534839
aF98.728299809583405
aF114.77175825176892
aa(lp3102
F1.0665466518166795
aF1.5832118642756541
aF1.7497026360488235
aF1.9162925291384454
aF2.4827493622869952
aF3.5000157182657858
aF3.8320839984189661
aF4.3153180607368995
aF4.4325477835318452
aa(lp3103
F0.63354207619704539
aa(lp3104
F0.56709871585007932
aa(lp3105
F0.18331733705599618
aa(lp3106
F0.68347676519442757
aa(lp3107
F0.25025405852102267
aa(lp3108
F1.4831189019532758
aa(lp3109
F1.9831650944124704
aF2.0831335937218682
aF2.282840592393768
aF2.4664427829429769
aF4.4822168658938608
aa(lp3110
F1.4660735640572966
aa(lp3111
F0.61691952760520508
aa(lp3112
F1.6164704342609184
aF1.9495963292392844
aF2.1496468843179173
aF2.3495569373371836
aF2.7156703423879662
aa(lp3113
F0.89991826501136529
aF1.3163885068024683
aF1.4499963430971547
aF1.6666187633763911
aF2.0166754774490983
aF2.3663844649618113
aa(lp3114
F0.61721849545938312
aa(lp3115
F1.3498369791159348
aF1.8497593501233496
aF2.0164413073489413
aF2.2171144982712576
aF2.6160251902856544
aF11.879033179015096
aa(lp3116
F2.1830767513365572
aF2.366001452495766
aF3.215665851455924
aF3.3492708007197507
aF3.8490292526566918
aF3.9655234247093176
aF4.0660959545675723
aF5.414967062210053
aF6.681191842411863
aa(lp3117
F1.5500533779522812
aF1.7000351575934474
aF2.1664805067830457
aF2.316464531892052
aF2.5330965756002115
aF2.7826850136279973
aF2.9329224556950066
aF4.4654913466129074
aF5.1487073168864299
aa(lp3118
F0.13338296884103329
aa(lp3119
F11.679504213778273
aa(lp3120
F0.20025393020841875
aa(lp3121
F0.98346181680062728
aa(lp3122
F0.25021588558593066
aa(lp3123
F4.83197364976877
aa(lp3124
F0.13394080693069554
aa(lp3125
F0.75047475582141487
aa(lp3126
F0.20038609196308244
aa(lp3127
F0.80142664124286966
aa(lp3128
F0.76710885252941807
aa(lp3129
F0.78360982513731869
aa(lp3130
F0.58369014868731028
aa(lp3131
F3.5492424436833971
aF3.6992399415921682
aF4.8489253196257778
aF5.7317693764525757
aF5.9648789757593477
aF6.0484096963100455
aF6.7314200459877611
aatbsg18
g2653
(g2654
(I0
tS'b'
tRp3132
(I1
(I224
I1
tg2656
I00
(lp3133
NaNaNaNaNaNaNaNaNaNaNaNaNaNaNaNaNaNaNaNaNaNaNaNaNaNaNaNaNaNaNaNaNaNaNaNaNaNaNaNaNaNaNaNaNaNaNaNaNaNaNaNaNaNaNaNaNaNaNaNaNaNaNaNaNaNaNaNaNaNaNaNaNaNaNaNaNaNaNaNaNaNaNaNaNaNaNaNaNaNaNaNaNaNaNaNaNaNaNaNaNaNaNaNaNaNaNaNaNaNaNaNaNaNaNaNaNaNaNaNaNaNaNaNaNaNaNaNaNaNaNaNaNaNaNaNaNaNaNaNaNaNaNaNaNaNaNaNaNaNaNaNaNaNaNaNaNaNaNaNaNaNaNaNaNaNaNaNaNaNaNaNaNaNaNaNaNaNaNaNaNaNaNaNaNaNaNaNaNaNaNaNaNaNaNaNaNaNaNaNaNaNaNaNaNaNaNaNaNaNaNaNaNaNaNaNaNaNaNaNaNaNaNaNatbsS'order'
p3134
g2661
(g2662
g2654
g2663
S'b'
tRp3135
(I1
(I224
I1
tg2665
I00
S'\x00\x00\xf0A\x00\x00*C\x00\x00\xa8B\x00\x00xB\x00\x00\xdaB\x00\x00HC\x00\x00DC\x00\x000B\x00\x00\xb8A\x00\x00\tC\x00\x00_C\x00\x00RC\x00\x003C\x00\x00PC\x00\x00\x9cB\x00\x00\x03C\x00\x00\x06C\x00\x00\rC\x00\x00\xc0A\x00\x00PA\x00\x00\x8cB\x00\x00`A\x00\x00SC\x00\x00\\C\x00\x00\x05C\x00\x00\x0eC\x00\x00\xbaB\x00\x006C\x00\x00dB\x00\x00\x84B\x00\x00\'C\x00\x00\xf8A\x00\x00\x8eB\x00\x00\xf4B\x00\x00FC\x00\x00XC\x00\x00\x16C\x00\x00\x15C\x00\x00;C\x00\x00GC\x00\x00IC\x00\x00\x1fC\x00\x00\x9eB\x00\x00 A\x00\x00NC\x00\x00OC\x00\x00\xe0B\x00\x00\x88A\x00\x00\nC\x00\x00)C\x00\x00\x98A\x00\x00@B\x00\x00\xeeB\x00\x00\xacB\x00\x00%C\x00\x00\xd8B\x00\x00/C\x00\x00$B\x00\x00\xc8B\x00\x00TB\x00\x00:C\x00\x008C\x00\x00\x08B\x00\x00\xc8A\x00\x00\xe8A\x00\x00\x12C\x00\x00|B\x00\x00\xe4B\x00\x00VC\x00\x00\xa4B\x00\x00\xb6B\x00\x00\xa6B\x00\x00(B\x00\x00\xd8A\x00\x00\x00\x00\x00\x00JC\x00\x00?C\x00\x00\xc4B\x00\x00\xeaB\x00\x00-C\x00\x005C\x00\x00\x11C\x00\x00\x92B\x00\x00\xceB\x00\x00\x00@\x00\x00\x1aC\x00\x001C\x00\x00pA\x00\x00\xf6B\x00\x00\xa0@\x00\x00WC\x00\x00\x80B\x00\x00<B\x00\x00\xa0A\x00\x00\xe6B\x00\x00EC\x00\x008B\x00\x00\x10A\x00\x00\xf2B\x00\x00\x00A\x00\x00\x80A\x00\x00\xfaB\x00\x00\xc0@\x00\x00>C\x00\x00\x0cC\x00\x00\x90B\x00\x00.C\x00\x00tB\x00\x00\x18C\x00\x00\x01C\x00\x00\x1dC\x00\x00\x0fC\x00\x000C\x00\x00\xb8B\x00\x00<C\x00\x00\x0cB\x00\x00\x86B\x00\x00\x1cB\x00\x00AC\x00\x00\xe2B\x00\x00\xe0@\x00\x00\xd4B\x00\x00\x88B\x00\x00QC\x00\x00\x90A\x00\x00\xa8A\x00\x00[C\x00\x007C\x00\x00\x10C\x00\x00\xc0B\x00\x00\xaaB\x00\x00\xcaB\x00\x00\xb4B\x00\x00 B\x00\x00BC\x00\x00\x04C\x00\x00\x02C\x00\x00\x80@\x00\x00\x14B\x00\x009C\x00\x00\xe0A\x00\x00\x82B\x00\x00!C\x00\x00\xd0B\x00\x00\x18B\x00\x00\x80?\x00\x00\x98B\x00\x00\xc2B\x00\x00CC\x00\x00=C\x00\x00\x14C\x00\x00\xaeB\x00\x00\xbeB\x00\x00TC\x00\x00\x00B\x00\x00\x00C\x00\x00\xc6B\x00\x00\xbcB\x00\x00^C\x00\x004B\x00\x00 C\x00\x00\xdcB\x00\x00\xf0B\x00\x00UC\x00\x004C\x00\x00\x19C\x00\x00,B\x00\x00YC\x00\x00\x1cC\x00\x00$C\x00\x00\x13C\x00\x00ZC\x00\x00hB\x00\x00KC\x00\x00\x96B\x00\x00\xccB\x00\x00\xdeB\x00\x00\xd2B\x00\x00@A\x00\x00@C\x00\x00LC\x00\x00,C\x00\x00\\B\x00\x00LB\x00\x00DB\x00\x00`B\x00\x00(C\x00\x00XB\x00\x00+C\x00\x00\x94B\x00\x00"C\x00\x00\xf8B\x00\x00]C\x00\x00lB\x00\x00\x08C\x00\x00\xd6B\x00\x002C\x00\x00#C\x00\x00MC\x00\x00\x9aB\x00\x00\xfeB\x00\x00PB\x00\x00\x17C\x00\x00\xa2B\x00\x00\xe8B\x00\x00\xecB\x00\x00\x1bC\x00\x00\xd0A\x00\x00\x04B\x00\x00pB\x00\x00\x1eC\x00\x00@@\x00\x00\xfcB\x00\x00\xb0A\x00\x00\xb0B\x00\x00\xb2B\x00\x00&C\x00\x000A\x00\x00\x0bC\x00\x00\x07C\x00\x00\x8aB\x00\x00\x10B\x00\x00\xa0B\x00\x00HB'
S'\x00\x00\x00\x00\x00\x00\x00\x00\x00\x00\x00\x00\x00\x00\x00\x00\x00\x00\x00\x00\x00\x00\x00\x00\x00\x00\x00\x00\x00\x00\x00\x00\x00\x00\x00\x00\x00\x00\x00\x00\x00\x00\x00\x00\x00\x00\x00\x00\x00\x00\x00\x00\x00\x00\x00\x00\x00\x00\x00\x00\x00\x00\x00\x00\x00\x00\x00\x00\x00\x00\x00\x00\x00\x00\x00\x00\x00\x00\x00\x00\x00\x00\x00\x00\x00\x00\x00\x00\x00\x00\x00\x00\x00\x00\x00\x00\x00\x00\x00\x00\x00\x00\x00\x00\x00\x00\x00\x00\x00\x00\x00\x00\x00\x00\x00\x00\x00\x00\x00\x00\x00\x00\x00\x00\x00\x00\x00\x00\x00\x00\x00\x00\x00\x00\x00\x00\x00\x00\x00\x00\x00\x00\x00\x00\x00\x00\x00\x00\x00\x00\x00\x00\x00\x00\x00\x00\x00\x00\x00\x00\x00\x00\x00\x00\x00\x00\x00\x00\x00\x00\x00\x00\x00\x00\x00\x00\x00\x00\x00\x00\x00\x00\x00\x00\x00\x00\x00\x00\x00\x00\x00\x00\x00\x00\x00\x00\x00\x00\x00\x00\x00\x00\x00\x00\x00\x00\x00\x00\x00\x00\x00\x00\x00\x00\x00\x00\x00\x00\x00\x00\x00\x00\x00\x00'
NtbstRp3136
(dp3137
S'isNumeric'
p3138
(dp3139
g16
I00
sg20
I00
sg17
I01
sg2666
I01
sg25
I00
sg22
I00
sg27
I00
sg19
I00
sg23
I00
sg21
I00
sg24
I00
sg28
I00
sg18
I00
sg3134
I01
ssg2647
g2641
sS'dataTypes'
p3140
(lp3141
g2666
ag3134
ag16
ag17
ag18
ag19
ag20
ag21
ag22
ag23
ag24
ag25
ag27
ag28
asS'dataShape'
p3142
(lp3143
I224
aI1
asbsS'method'
p3144
S'random'
p3145
sS'sequenceIndices'
p3146
g2653
(g2654
(I0
tS'b'
tRp3147
(I1
(I224
I1
tg60
I01
S'J\x00\x00\x00\x91\x00\x00\x00T\x00\x00\x00\xd3\x00\x00\x00\x89\x00\x00\x00Y\x00\x00\x00f\x00\x00\x00x\x00\x00\x00c\x00\x00\x00a\x00\x00\x00+\x00\x00\x00\xd9\x00\x00\x00\xb2\x00\x00\x00\x13\x00\x00\x00\x15\x00\x00\x00W\x00\x00\x00d\x00\x00\x00/\x00\x00\x00|\x00\x00\x002\x00\x00\x00]\x00\x00\x00}\x00\x00\x00\xd5\x00\x00\x00\x08\x00\x00\x00\x12\x00\x00\x00?\x00\x00\x00\xcf\x00\x00\x00I\x00\x00\x00\x8c\x00\x00\x00@\x00\x00\x00\x00\x00\x00\x00\x1f\x00\x00\x00\x9a\x00\x00\x00\xd0\x00\x00\x00>\x00\x00\x00s\x00\x00\x00\xdd\x00\x00\x00\x8a\x00\x00\x00\x90\x00\x00\x00u\x00\x00\x00\x85\x00\x00\x009\x00\x00\x00H\x00\x00\x00\xa6\x00\x00\x00\x07\x00\x00\x00\x9f\x00\x00\x00`\x00\x00\x00\\\x00\x00\x003\x00\x00\x00\xb8\x00\x00\x00\xdf\x00\x00\x00\xb7\x00\x00\x00\xc9\x00\x00\x00;\x00\x00\x00\xbb\x00\x00\x00\xb6\x00\x00\x00\xb9\x00\x00\x00\x1c\x00\x00\x00\xac\x00\x00\x00\xc1\x00\x00\x00\xd1\x00\x00\x00k\x00\x00\x00\x03\x00\x00\x00B\x00\x00\x00[\x00\x00\x00\x8d\x00\x00\x00\x1d\x00\x00\x00t\x00\x00\x00z\x00\x00\x00\xdc\x00\x00\x00\x14\x00\x00\x00 \x00\x00\x00i\x00\x00\x00R\x00\x00\x00\xbd\x00\x00\x00\xae\x00\x00\x00\x92\x00\x00\x00\xc7\x00\x00\x00\x0e\x00\x00\x00*\x00\x00\x00\xde\x00\x00\x00\xcb\x00\x00\x00E\x00\x00\x00G\x00\x00\x00\x02\x00\x00\x00\x82\x00\x00\x005\x00\x00\x00\x97\x00\x00\x00\xd6\x00\x00\x00\xd7\x00\x00\x00\x84\x00\x00\x00F\x00\x00\x00q\x00\x00\x00\x1a\x00\x00\x00\x9d\x00\x00\x00\x98\x00\x00\x00\x81\x00\x00\x00\x93\x00\x00\x00M\x00\x00\x00\x9c\x00\x00\x00:\x00\x00\x00\x83\x00\x00\x00\xaf\x00\x00\x00S\x00\x00\x00\x8f\x00\x00\x00\xb1\x00\x00\x00y\x00\x00\x00\xc3\x00\x00\x007\x00\x00\x00\x04\x00\x00\x00\xa1\x00\x00\x00\xb0\x00\x00\x00.\x00\x00\x00w\x00\x00\x00C\x00\x00\x00^\x00\x00\x00\xcc\x00\x00\x00N\x00\x00\x00\xcd\x00\x00\x004\x00\x00\x00\xa2\x00\x00\x00b\x00\x00\x00!\x00\x00\x00X\x00\x00\x00\xbf\x00\x00\x00e\x00\x00\x00\xd4\x00\x00\x00\xc8\x00\x00\x00\x9b\x00\x00\x00m\x00\x00\x00\x88\x00\x00\x00\x0f\x00\x00\x00\x87\x00\x00\x00\x18\x00\x00\x00\x10\x00\x00\x00\xdb\x00\x00\x00\xc2\x00\x00\x00\t\x00\x00\x000\x00\x00\x00\xda\x00\x00\x00h\x00\x00\x00\x11\x00\x00\x00\x19\x00\x00\x00o\x00\x00\x00\x80\x00\x00\x00Q\x00\x00\x00A\x00\x00\x00\xaa\x00\x00\x00\x96\x00\x00\x00%\x00\x00\x00$\x00\x00\x00\xca\x00\x00\x00l\x00\x00\x00\xa5\x00\x00\x00U\x00\x00\x00\xce\x00\x00\x00\xa8\x00\x00\x00n\x00\x00\x00\xd2\x00\x00\x00)\x00\x00\x00\xa0\x00\x00\x00\x8e\x00\x00\x00\xbe\x00\x00\x00\xc5\x00\x00\x00\xa9\x00\x00\x006\x00\x00\x00\xd8\x00\x00\x00\x1e\x00\x00\x00\xba\x00\x00\x001\x00\x00\x00\x01\x00\x00\x00\xbc\x00\x00\x00\xb5\x00\x00\x00O\x00\x00\x00j\x00\x00\x008\x00\x00\x00p\x00\x00\x00V\x00\x00\x00\xc4\x00\x00\x00\x0c\x00\x00\x00\xa4\x00\x00\x00P\x00\x00\x00\x1b\x00\x00\x00\x7f\x00\x00\x00=\x00\x00\x00\x8b\x00\x00\x00<\x00\x00\x00&\x00\x00\x00r\x00\x00\x00\x95\x00\x00\x00g\x00\x00\x00L\x00\x00\x00\xb3\x00\x00\x00v\x00\x00\x00\x86\x00\x00\x00\x94\x00\x00\x00\x06\x00\x00\x00_\x00\x00\x00"\x00\x00\x00\'\x00\x00\x00\x05\x00\x00\x00(\x00\x00\x00K\x00\x00\x00\xad\x00\x00\x00\xb4\x00\x00\x00\xc6\x00\x00\x00,\x00\x00\x00-\x00\x00\x00\r\x00\x00\x00{\x00\x00\x00\x0b\x00\x00\x00\x16\x00\x00\x00\x99\x00\x00\x00\xa3\x00\x00\x00D\x00\x00\x00Z\x00\x00\x00#\x00\x00\x00\xa7\x00\x00\x00\xab\x00\x00\x00~\x00\x00\x00\x17\x00\x00\x00\xc0\x00\x00\x00\x9e\x00\x00\x00\n\x00\x00\x00'
tbsS'finished'
p3148
I01
sS'nReps'
p3149
I1
sS'nRemaining'
p3150
I-1
sS'trialList'
p3151
(lp3152
g1
(cpsychopy.data
TrialType
p3153
g2651
(dp3154
g52
g415
sg53
g414
stRp3155
ag1
(g3153
g2651
(dp3156
g52
g2014
sg53
g2013
stRp3157
ag1
(g3153
g2651
(dp3158
g52
g1032
sg53
g1031
stRp3159
ag1
(g3153
g2651
(dp3160
g52
g782
sg53
g781
stRp3161
ag1
(g3153
g2651
(dp3162
g52
g1318
sg53
g1317
stRp3163
ag1
(g3153
g2651
(dp3164
g52
g2352
sg53
g2351
stRp3165
ag1
(g3153
g2651
(dp3166
g52
g2305
sg53
g2304
stRp3167
ag1
(g3153
g2651
(dp3168
g52
g579
sg53
g578
stRp3169
ag1
(g3153
g2651
(dp3170
g52
g336
sg53
g335
stRp3171
ag1
(g3153
g2651
(dp3172
g52
g1644
sg53
g1643
stRp3173
ag1
(g3153
g2651
(dp3174
g52
g2630
sg53
g2629
stRp3175
ag1
(g3153
g2651
(dp3176
g52
g2467
sg53
g2466
stRp3177
ag1
(g3153
g2651
(dp3178
g52
g2114
sg53
g2113
stRp3179
ag1
(g3153
g2651
(dp3180
g52
g2443
sg53
g2442
stRp3181
ag1
(g3153
g2651
(dp3182
g52
g963
sg53
g962
stRp3183
ag1
(g3153
g2651
(dp3184
g52
g1576
sg53
g1575
stRp3185
ag1
(g3153
g2651
(dp3186
g52
g1609
sg53
g1608
stRp3187
ag1
(g3153
g2651
(dp3188
g52
g1688
sg53
g1687
stRp3189
ag1
(g3153
g2651
(dp3190
g52
g348
sg53
g347
stRp3191
ag1
(g3153
g2651
(dp3192
g52
g222
sg53
g221
stRp3193
ag1
(g3153
g2651
(dp3194
g52
g873
sg53
g872
stRp3195
ag1
(g3153
g2651
(dp3196
g52
g233
sg53
g232
stRp3197
ag1
(g3153
g2651
(dp3198
g52
g2479
sg53
g2478
stRp3199
ag1
(g3153
g2651
(dp3200
g52
g2596
sg53
g2595
stRp3201
ag1
(g3153
g2651
(dp3202
g52
g1598
sg53
g1597
stRp3203
ag1
(g3153
g2651
(dp3204
g52
g1699
sg53
g1698
stRp3205
ag1
(g3153
g2651
(dp3206
g52
g1135
sg53
g1134
stRp3207
ag1
(g3153
g2651
(dp3208
g52
g2150
sg53
g2149
stRp3209
ag1
(g3153
g2651
(dp3210
g52
g725
sg53
g724
stRp3211
ag1
(g3153
g2651
(dp3212
g52
g829
sg53
g828
stRp3213
ag1
(g3153
g2651
(dp3214
g52
g1981
sg53
g1980
stRp3215
ag1
(g3153
g2651
(dp3216
g52
g428
sg53
g427
stRp3217
ag1
(g3153
g2651
(dp3218
g52
g884
sg53
g883
stRp3219
ag1
(g3153
g2651
(dp3220
g52
g1470
sg53
g1469
stRp3221
ag1
(g3153
g2651
(dp3222
g52
g2328
sg53
g2327
stRp3223
ag1
(g3153
g2651
(dp3224
g52
g2552
sg53
g2551
stRp3225
ag1
(g3153
g2651
(dp3226
g52
g1791
sg53
g1790
stRp3227
ag1
(g3153
g2651
(dp3228
g52
g1780
sg53
g1779
stRp3229
ag1
(g3153
g2651
(dp3230
g52
g2206
sg53
g2205
stRp3231
ag1
(g3153
g2651
(dp3232
g52
g2341
sg53
g2340
stRp3233
ag1
(g3153
g2651
(dp3234
g52
g2364
sg53
g2363
stRp3235
ag1
(g3153
g2651
(dp3236
g52
g1892
sg53
g1891
stRp3237
ag1
(g3153
g2651
(dp3238
g52
g975
sg53
g974
stRp3239
ag1
(g3153
g2651
(dp3240
g52
g188
sg53
g187
stRp3241
ag1
(g3153
g2651
(dp3242
g52
g2421
sg53
g2420
stRp3243
ag1
(g3153
g2651
(dp3244
g52
g2432
sg53
g2431
stRp3245
ag1
(g3153
g2651
(dp3246
g52
g1357
sg53
g1356
stRp3247
ag1
(g3153
g2651
(dp3248
g52
g266
sg53
g265
stRp3249
ag1
(g3153
g2651
(dp3250
g52
g1655
sg53
g1654
stRp3251
ag1
(g3153
g2651
(dp3252
g52
g2003
sg53
g2002
stRp3253
ag1
(g3153
g2651
(dp3254
g52
g290
sg53
g289
stRp3255
ag1
(g3153
g2651
(dp3256
g52
g624
sg53
g623
stRp3257
ag1
(g3153
g2651
(dp3258
g52
g1437
sg53
g1436
stRp3259
ag1
(g3153
g2651
(dp3260
g52
g1056
sg53
g1055
stRp3261
ag1
(g3153
g2651
(dp3262
g52
g1959
sg53
g1958
stRp3263
ag1
(g3153
g2651
(dp3264
g52
g1307
sg53
g1306
stRp3265
ag1
(g3153
g2651
(dp3266
g52
g2069
sg53
g2068
stRp3267
ag1
(g3153
g2651
(dp3268
g52
g545
sg53
g544
stRp3269
ag1
(g3153
g2651
(dp3270
g52
g1215
sg53
g1214
stRp3271
ag1
(g3153
g2651
(dp3272
g52
g681
sg53
g680
stRp3273
ag1
(g3153
g2651
(dp3274
g52
g2195
sg53
g2194
stRp3275
ag1
(g3153
g2651
(dp3276
g52
g2172
sg53
g2171
stRp3277
ag1
(g3153
g2651
(dp3278
g52
g464
sg53
g463
stRp3279
ag1
(g3153
g2651
(dp3280
g52
g359
sg53
g358
stRp3281
ag1
(g3153
g2651
(dp3282
g52
g404
sg53
g403
stRp3283
ag1
(g3153
g2651
(dp3284
g52
g1745
sg53
g1744
stRp3285
ag1
(g3153
g2651
(dp3286
g52
g796
sg53
g795
stRp3287
ag1
(g3153
g2651
(dp3288
g52
g1379
sg53
g1378
stRp3289
ag1
(g3153
g2651
(dp3290
g52
g2512
sg53
g2511
stRp3291
ag1
(g3153
g2651
(dp3292
g52
g1009
sg53
g1008
stRp3293
ag1
(g3153
g2651
(dp3294
g52
g1112
sg53
g1111
stRp3295
ag1
(g3153
g2651
(dp3296
g52
g1021
sg53
g1020
stRp3297
ag1
(g3153
g2651
(dp3298
g52
g556
sg53
g555
stRp3299
ag1
(g3153
g2651
(dp3300
g52
g382
sg53
g381
stRp3301
ag1
(g3153
g2651
(dp3302
g52
g64
sg53
g62
stRp3303
ag1
(g3153
g2651
(dp3304
g52
g2375
sg53
g2374
stRp3305
ag1
(g3153
g2651
(dp3306
g52
g2250
sg53
g2249
stRp3307
ag1
(g3153
g2651
(dp3308
g52
g1192
sg53
g1191
stRp3309
ag1
(g3153
g2651
(dp3310
g52
g1414
sg53
g1413
stRp3311
ag1
(g3153
g2651
(dp3312
g52
g2047
sg53
g2046
stRp3313
ag1
(g3153
g2651
(dp3314
g52
g2137
sg53
g2136
stRp3315
ag1
(g3153
g2651
(dp3316
g52
g1732
sg53
g1731
stRp3317
ag1
(g3153
g2651
(dp3318
g52
g906
sg53
g905
stRp3319
ag1
(g3153
g2651
(dp3320
g52
g1252
sg53
g1251
stRp3321
ag1
(g3153
g2651
(dp3322
g52
g90
sg53
g89
stRp3323
ag1
(g3153
g2651
(dp3324
g52
g1836
sg53
g1835
stRp3325
ag1
(g3153
g2651
(dp3326
g52
g2091
sg53
g2090
stRp3327
ag1
(g3153
g2651
(dp3328
g52
g244
sg53
g243
stRp3329
ag1
(g3153
g2651
(dp3330
g52
g1481
sg53
g1480
stRp3331
ag1
(g3153
g2651
(dp3332
g52
g128
sg53
g127
stRp3333
ag1
(g3153
g2651
(dp3334
g52
g2541
sg53
g2540
stRp3335
ag1
(g3153
g2651
(dp3336
g52
g807
sg53
g806
stRp3337
ag1
(g3153
g2651
(dp3338
g52
g612
sg53
g611
stRp3339
ag1
(g3153
g2651
(dp3340
g52
g301
sg53
g300
stRp3341
ag1
(g3153
g2651
(dp3342
g52
g1391
sg53
g1390
stRp3343
ag1
(g3153
g2651
(dp3344
g52
g2317
sg53
g2316
stRp3345
ag1
(g3153
g2651
(dp3346
g52
g601
sg53
g600
stRp3347
ag1
(g3153
g2651
(dp3348
g52
g177
sg53
g176
stRp3349
ag1
(g3153
g2651
(dp3350
g52
g1459
sg53
g1458
stRp3351
ag1
(g3153
g2651
(dp3352
g52
g166
sg53
g165
stRp3353
ag1
(g3153
g2651
(dp3354
g52
g255
sg53
g254
stRp3355
ag1
(g3153
g2651
(dp3356
g52
g1509
sg53
g1508
stRp3357
ag1
(g3153
g2651
(dp3358
g52
g141
sg53
g140
stRp3359
ag1
(g3153
g2651
(dp3360
g52
g2239
sg53
g2238
stRp3361
ag1
(g3153
g2651
(dp3362
g52
g1677
sg53
g1676
stRp3363
ag1
(g3153
g2651
(dp3364
g52
g895
sg53
g894
stRp3365
ag1
(g3153
g2651
(dp3366
g52
g2058
sg53
g2057
stRp3367
ag1
(g3153
g2651
(dp3368
g52
g771
sg53
g770
stRp3369
ag1
(g3153
g2651
(dp3370
g52
g1813
sg53
g1812
stRp3371
ag1
(g3153
g2651
(dp3372
g52
g1553
sg53
g1552
stRp3373
ag1
(g3153
g2651
(dp3374
g52
g1870
sg53
g1869
stRp3375
ag1
(g3153
g2651
(dp3376
g52
g1710
sg53
g1709
stRp3377
ag1
(g3153
g2651
(dp3378
g52
g2080
sg53
g2079
stRp3379
ag1
(g3153
g2651
(dp3380
g52
g1123
sg53
g1122
stRp3381
ag1
(g3153
g2651
(dp3382
g52
g2217
sg53
g2216
stRp3383
ag1
(g3153
g2651
(dp3384
g52
g475
sg53
g474
stRp3385
ag1
(g3153
g2651
(dp3386
g52
g840
sg53
g839
stRp3387
ag1
(g3153
g2651
(dp3388
g52
g522
sg53
g521
stRp3389
ag1
(g3153
g2651
(dp3390
g52
g2272
sg53
g2271
stRp3391
ag1
(g3153
g2651
(dp3392
g52
g1368
sg53
g1367
stRp3393
ag1
(g3153
g2651
(dp3394
g52
g153
sg53
g152
stRp3395
ag1
(g3153
g2651
(dp3396
g52
g1285
sg53
g1284
stRp3397
ag1
(g3153
g2651
(dp3398
g52
g851
sg53
g850
stRp3399
ag1
(g3153
g2651
(dp3400
g52
g2455
sg53
g2454
stRp3401
ag1
(g3153
g2651
(dp3402
g52
g278
sg53
g277
stRp3403
ag1
(g3153
g2651
(dp3404
g52
g312
sg53
g311
stRp3405
ag1
(g3153
g2651
(dp3406
g52
g2585
sg53
g2584
stRp3407
ag1
(g3153
g2651
(dp3408
g52
g2161
sg53
g2160
stRp3409
ag1
(g3153
g2651
(dp3410
g52
g1721
sg53
g1720
stRp3411
ag1
(g3153
g2651
(dp3412
g52
g1169
sg53
g1168
stRp3413
ag1
(g3153
g2651
(dp3414
g52
g1044
sg53
g1043
stRp3415
ag1
(g3153
g2651
(dp3416
g52
g1226
sg53
g1225
stRp3417
ag1
(g3153
g2651
(dp3418
g52
g1100
sg53
g1099
stRp3419
ag1
(g3153
g2651
(dp3420
g52
g533
sg53
g532
stRp3421
ag1
(g3153
g2651
(dp3422
g52
g2283
sg53
g2282
stRp3423
ag1
(g3153
g2651
(dp3424
g52
g1587
sg53
g1586
stRp3425
ag1
(g3153
g2651
(dp3426
g52
g1564
sg53
g1563
stRp3427
ag1
(g3153
g2651
(dp3428
g52
g115
sg53
g114
stRp3429
ag1
(g3153
g2651
(dp3430
g52
g497
sg53
g496
stRp3431
ag1
(g3153
g2651
(dp3432
g52
g2183
sg53
g2182
stRp3433
ag1
(g3153
g2651
(dp3434
g52
g393
sg53
g392
stRp3435
ag1
(g3153
g2651
(dp3436
g52
g818
sg53
g817
stRp3437
ag1
(g3153
g2651
(dp3438
g52
g1915
sg53
g1914
stRp3439
ag1
(g3153
g2651
(dp3440
g52
g1263
sg53
g1262
stRp3441
ag1
(g3153
g2651
(dp3442
g52
g511
sg53
g510
stRp3443
ag1
(g3153
g2651
(dp3444
g52
g77
sg53
g76
stRp3445
ag1
(g3153
g2651
(dp3446
g52
g941
sg53
g940
stRp3447
ag1
(g3153
g2651
(dp3448
g52
g1180
sg53
g1179
stRp3449
ag1
(g3153
g2651
(dp3450
g52
g2294
sg53
g2293
stRp3451
ag1
(g3153
g2651
(dp3452
g52
g2228
sg53
g2227
stRp3453
ag1
(g3153
g2651
(dp3454
g52
g1769
sg53
g1768
stRp3455
ag1
(g3153
g2651
(dp3456
g52
g1067
sg53
g1066
stRp3457
ag1
(g3153
g2651
(dp3458
g52
g1157
sg53
g1156
stRp3459
ag1
(g3153
g2651
(dp3460
g52
g2490
sg53
g2489
stRp3461
ag1
(g3153
g2651
(dp3462
g52
g441
sg53
g440
stRp3463
ag1
(g3153
g2651
(dp3464
g52
g1542
sg53
g1541
stRp3465
ag1
(g3153
g2651
(dp3466
g52
g1204
sg53
g1203
stRp3467
ag1
(g3153
g2651
(dp3468
g52
g1146
sg53
g1145
stRp3469
ag1
(g3153
g2651
(dp3470
g52
g2619
sg53
g2618
stRp3471
ag1
(g3153
g2651
(dp3472
g52
g590
sg53
g589
stRp3473
ag1
(g3153
g2651
(dp3474
g52
g1903
sg53
g1902
stRp3475
ag1
(g3153
g2651
(dp3476
g52
g1334
sg53
g1333
stRp3477
ag1
(g3153
g2651
(dp3478
g52
g1448
sg53
g1447
stRp3479
ag1
(g3153
g2651
(dp3480
g52
g2501
sg53
g2500
stRp3481
ag1
(g3153
g2651
(dp3482
g52
g2126
sg53
g2125
stRp3483
ag1
(g3153
g2651
(dp3484
g52
g1824
sg53
g1823
stRp3485
ag1
(g3153
g2651
(dp3486
g52
g567
sg53
g566
stRp3487
ag1
(g3153
g2651
(dp3488
g52
g2563
sg53
g2562
stRp3489
ag1
(g3153
g2651
(dp3490
g52
g1858
sg53
g1857
stRp3491
ag1
(g3153
g2651
(dp3492
g52
g1948
sg53
g1947
stRp3493
ag1
(g3153
g2651
(dp3494
g52
g1758
sg53
g1757
stRp3495
ag1
(g3153
g2651
(dp3496
g52
g2574
sg53
g2573
stRp3497
ag1
(g3153
g2651
(dp3498
g52
g736
sg53
g735
stRp3499
ag1
(g3153
g2651
(dp3500
g52
g2388
sg53
g2387
stRp3501
ag1
(g3153
g2651
(dp3502
g52
g930
sg53
g929
stRp3503
ag1
(g3153
g2651
(dp3504
g52
g1241
sg53
g1240
stRp3505
ag1
(g3153
g2651
(dp3506
g52
g1346
sg53
g1345
stRp3507
ag1
(g3153
g2651
(dp3508
g52
g1274
sg53
g1273
stRp3509
ag1
(g3153
g2651
(dp3510
g52
g210
sg53
g209
stRp3511
ag1
(g3153
g2651
(dp3512
g52
g2261
sg53
g2260
stRp3513
ag1
(g3153
g2651
(dp3514
g52
g2399
sg53
g2398
stRp3515
ag1
(g3153
g2651
(dp3516
g52
g2036
sg53
g2035
stRp3517
ag1
(g3153
g2651
(dp3518
g52
g703
sg53
g702
stRp3519
ag1
(g3153
g2651
(dp3520
g52
g658
sg53
g657
stRp3521
ag1
(g3153
g2651
(dp3522
g52
g635
sg53
g634
stRp3523
ag1
(g3153
g2651
(dp3524
g52
g714
sg53
g713
stRp3525
ag1
(g3153
g2651
(dp3526
g52
g1992
sg53
g1991
stRp3527
ag1
(g3153
g2651
(dp3528
g52
g692
sg53
g691
stRp3529
ag1
(g3153
g2651
(dp3530
g52
g2025
sg53
g2024
stRp3531
ag1
(g3153
g2651
(dp3532
g52
g919
sg53
g918
stRp3533
ag1
(g3153
g2651
(dp3534
g52
g1926
sg53
g1925
stRp3535
ag1
(g3153
g2651
(dp3536
g52
g1492
sg53
g1491
stRp3537
ag1
(g3153
g2651
(dp3538
g52
g2608
sg53
g2607
stRp3539
ag1
(g3153
g2651
(dp3540
g52
g747
sg53
g746
stRp3541
ag1
(g3153
g2651
(dp3542
g52
g1631
sg53
g1630
stRp3543
ag1
(g3153
g2651
(dp3544
g52
g1296
sg53
g1295
stRp3545
ag1
(g3153
g2651
(dp3546
g52
g2103
sg53
g2102
stRp3547
ag1
(g3153
g2651
(dp3548
g52
g1937
sg53
g1936
stRp3549
ag1
(g3153
g2651
(dp3550
g52
g2410
sg53
g2409
stRp3551
ag1
(g3153
g2651
(dp3552
g52
g952
sg53
g951
stRp3553
ag1
(g3153
g2651
(dp3554
g52
g1531
sg53
g1530
stRp3555
ag1
(g3153
g2651
(dp3556
g52
g669
sg53
g668
stRp3557
ag1
(g3153
g2651
(dp3558
g52
g1802
sg53
g1801
stRp3559
ag1
(g3153
g2651
(dp3560
g52
g998
sg53
g997
stRp3561
ag1
(g3153
g2651
(dp3562
g52
g1402
sg53
g1401
stRp3563
ag1
(g3153
g2651
(dp3564
g52
g1425
sg53
g1424
stRp3565
ag1
(g3153
g2651
(dp3566
g52
g1847
sg53
g1846
stRp3567
ag1
(g3153
g2651
(dp3568
g52
g370
sg53
g369
stRp3569
ag1
(g3153
g2651
(dp3570
g52
g452
sg53
g451
stRp3571
ag1
(g3153
g2651
(dp3572
g52
g759
sg53
g758
stRp3573
ag1
(g3153
g2651
(dp3574
g52
g1881
sg53
g1880
stRp3575
ag1
(g3153
g2651
(dp3576
g52
g103
sg53
g102
stRp3577
ag1
(g3153
g2651
(dp3578
g52
g1520
sg53
g1519
stRp3579
ag1
(g3153
g2651
(dp3580
g52
g325
sg53
g324
stRp3581
ag1
(g3153
g2651
(dp3582
g52
g1078
sg53
g1077
stRp3583
ag1
(g3153
g2651
(dp3584
g52
g1089
sg53
g1088
stRp3585
ag1
(g3153
g2651
(dp3586
g52
g1970
sg53
g1969
stRp3587
ag1
(g3153
g2651
(dp3588
g52
g199
sg53
g198
stRp3589
ag1
(g3153
g2651
(dp3590
g52
g1666
sg53
g1665
stRp3591
ag1
(g3153
g2651
(dp3592
g52
g1620
sg53
g1619
stRp3593
ag1
(g3153
g2651
(dp3594
g52
g862
sg53
g861
stRp3595
ag1
(g3153
g2651
(dp3596
g52
g486
sg53
g485
stRp3597
ag1
(g3153
g2651
(dp3598
g52
g987
sg53
g986
stRp3599
ag1
(g3153
g2651
(dp3600
g52
g646
sg53
g645
stRp3601
asS'seed'
p3602
NsS'thisIndex'
p3603
g2628
sS'thisN'
p3604
I224
sS'thisTrialN'
p3605
I0
sS'nTotal'
p3606
I224
sbasS'savePickle'
p3607
I00
sb.