ccopy_reg
_reconstructor
p1
(cpsychopy.data
ExperimentHandler
p2
c__builtin__
object
p3
NtRp4
(dp5
S'originPath'
p6
NsS'dataFileName'
p7
VC:\u005cUsers\u005cPublic\u005cDocuments\u005cprosopagnosie\u005cfamousFilter\u005cdata/14_famFaceFilter_2017_Feb_08_1322
p8
sS'runtimeInfo'
p9
NsS'name'
p10
S'famFaceFilter'
p11
sS'dataNames'
p12
(lp13
S'key_resp_2.keys'
p14
aS'key_resp_2.rt'
p15
aS'ratingBekannt.response'
p16
aS'ratingBekannt.rt'
p17
aS'key_resp_5.keys'
p18
aS'ratingK1.response'
p19
aS'ratingK1.rt'
p20
aS'ratingK2.response'
p21
aS'ratingK2.rt'
p22
aS'ratingK3.response'
p23
aS'ratingK3.rt'
p24
aS'key_resp_6.keys'
p25
aS'inputText'
p26
aS'key_resp_4.keys'
p27
aS'key_resp_4.rt'
p28
asS'autoLog'
p29
I01
sS'extraInfo'
p30
(dp31
S'date'
p32
V2017_Feb_08_1322
p33
sS'frameRate'
p34
cnumpy.core.multiarray
scalar
p35
(cnumpy
dtype
p36
(S'f8'
I0
I1
tRp37
(I3
S'<'
NNNI-1
I-1
I0
tbS'*\x87!\xb0\xef\x00N@'
tRp38
sS'expName'
p39
g11
sVsession
p40
V001
p41
sVparticipant
p42
V14
p43
ssS'loopsUnfinished'
p44
(lp45
sS'saveWideText'
p46
I00
sS'thisEntry'
p47
(dp48
sS'version'
p49
S''
sS'_paramNamesSoFar'
p50
(lp51
S'num'
p52
aS'pic'
p53
asS'entries'
p54
(lp55
(dp56
g40
g41
sg15
F28.570238199108644
sg39
g11
sg42
g43
sg32
g33
sg34
g38
sg14
S'space'
p57
sa(dp58
g20
F5.5490000000000004
sg39
g11
sS'trials.thisIndex'
p59
g35
(g36
(S'i4'
I0
I1
tRp60
(I3
S'<'
NNNI-1
I-1
I0
tbS'\x05\x00\x00\x00'
tRp61
sg25
Nsg53
V./img/smoo15_AlysonHannigan(Lily)1_1.png
p62
sg34
g38
sg24
Nsg52
g35
(g36
(S'i8'
I0
I1
tRp63
(I3
S'<'
NNNI-1
I-1
I0
tbS'\x06\x00\x00\x00\x00\x00\x00\x00'
tRp64
sg32
g33
sg26
S''
sg28
(lp65
F3.1825384808835224
asS'trials.thisN'
p66
I0
sg40
g41
sg16
V1.ja
p67
sg17
F12.002000000000001
sg27
(lp68
S'return'
p69
asS'trials.thisRepN'
p70
I0
sg42
g43
sg22
Nsg19
S'act'
p71
sS'trials.thisTrialN'
p72
I0
sg23
Nsg21
Nsg18
Nsa(dp73
g20
F0.45800000000000002
sg39
g11
sS'trials.thisIndex'
p74
g35
(g60
S',\x00\x00\x00'
tRp75
sg25
Nsg53
V./img/smoo15_RobertSeanLeonard(Wilson)2_6.png
p76
sg34
g38
sg24
Nsg52
g35
(g63
S'-\x00\x00\x00\x00\x00\x00\x00'
tRp77
sg32
g33
sg26
S''
sg28
(lp78
F0.35026137232671317
asS'trials.thisN'
p79
I1
sg40
g41
sg16
g67
sg17
F1.3240000000000001
sg27
(lp80
S'return'
p81
asS'trials.thisRepN'
p82
I0
sg42
g43
sg22
Nsg19
g71
sS'trials.thisTrialN'
p83
I1
sg23
Nsg21
Nsg18
Nsa(dp84
g20
F1.2689999999999999
sg39
g11
sS'trials.thisIndex'
p85
g35
(g60
S';\x00\x00\x00'
tRp86
sg25
Nsg53
V./img/smoo15_LeonardoDiCaprio2_1.png
p87
sg34
g38
sg24
Nsg52
g35
(g63
S'<\x00\x00\x00\x00\x00\x00\x00'
tRp88
sg32
g33
sg26
S'leonardo di kaprio'
p89
sg28
(lp90
F0.73346374148604809
aF1.1166250506830693
aF1.2833336327275902
aF1.4498738047695952
aF1.8160821609853883
aF2.0496665161135752
aF2.3495049708217266
aF2.7660461052055325
aF4.7984369626919943
aF4.9486169849660655
aF5.0982686810002633
aF5.481717730717719
aF5.6815222468012507
aF5.9980935987514385
aF6.2313013570310432
aF6.7143570651351183
aF7.4977054537885124
aF7.6640451377297723
aF8.0471323465244495
aF8.3637136426859797
aF8.6639097681654675
aF9.1300154103173554
aF9.5297729640660691
aF9.6300365818606224
aF10.412947746064674
aF11.479218205473444
aF11.562401841025348
aF12.378897809450791
aF12.528805167909013
aF13.146127596401129
aF13.828423246097373
aF14.128091045335168
aF14.244805593905767
aF14.428066794294864
aF15.110756363010296
asS'trials.thisN'
p91
I2
sg40
g41
sg16
g67
sg17
F4.79
sg27
(lp92
S'b'
aS'r'
aS'e'
aS'd'
aS'space'
p93
aS'p'
aS'i'
aS't'
aS'backspace'
p94
aS'backspace'
p95
aS'backspace'
p96
aS'backspace'
p97
aS'backspace'
p98
aS'backspace'
p99
aS'backspace'
p100
aS'backspace'
p101
aS'l'
aS'e'
aS'o'
aS'n'
aS'a'
aS'r'
aS'd'
aS'o'
aS'space'
p102
aS'd'
aS'i'
aS'space'
p103
aS'k'
aS'a'
aS'p'
aS'r'
aS'i'
aS'o'
aS'return'
p104
asS'trials.thisRepN'
p105
I0
sg42
g43
sg22
Nsg19
S'dummy'
p106
sS'trials.thisTrialN'
p107
I2
sg23
Nsg21
Nsg18
Nsa(dp108
g20
Nsg39
g11
sS'trials.thisIndex'
p109
g35
(g60
S'\x1e\x00\x00\x00'
tRp110
sg25
Nsg53
V./img/smoo15_BritneySpears1_1.png
p111
sg34
g38
sg24
Nsg52
g35
(g63
S'\x1f\x00\x00\x00\x00\x00\x00\x00'
tRp112
sg32
g33
sg26
S'britney'
p113
sg28
(lp114
F1.066788841442758
aF1.6994641674846207
aF1.8498363375547342
aF1.9330212562308589
aF2.4493634422633477
aF2.799122471604278
aF3.3324775966575544
aF3.9989789542032668
asS'trials.thisN'
p115
I3
sg40
g41
sg16
g67
sg17
F13.863
sg27
(lp116
S'b'
aS'r'
aS'i'
aS't'
aS'n'
aS'e'
aS'y'
aS'return'
p117
asS'trials.thisRepN'
p118
I0
sg42
g43
sg22
F0.98599999999999999
sg19
NsS'trials.thisTrialN'
p119
I3
sg23
Nsg21
S'music'
p120
sg18
Nsa(dp121
g20
Nsg39
g11
sS'trials.thisIndex'
p122
g35
(g60
S'3\x00\x00\x00'
tRp123
sg25
Nsg53
V./img/smoo15_BastianSchweinsteiger3_1.png
p124
sg34
g38
sg24
F0.85799999999999998
sg52
g35
(g63
S'4\x00\x00\x00\x00\x00\x00\x00'
tRp125
sg32
g33
sg26
S''
sg28
(lp126
F0.70009097347974603
asS'trials.thisN'
p127
I4
sg40
g41
sg16
g67
sg17
F2.4500000000000002
sg27
(lp128
S'return'
p129
asS'trials.thisRepN'
p130
I0
sg42
g43
sg22
Nsg19
NsS'trials.thisTrialN'
p131
I4
sg23
S'polit'
p132
sg21
Nsg18
Nsa(dp133
g20
F15.769
sg39
g11
sS'trials.thisIndex'
p134
g35
(g60
S'\x0f\x00\x00\x00'
tRp135
sg25
Nsg53
V./img/smoo15_WillSmith4_1.png
p136
sg34
g38
sg24
Nsg52
g35
(g63
S'\x10\x00\x00\x00\x00\x00\x00\x00'
tRp137
sg32
g33
sg26
S''
sg28
(lp138
F0.58341235237639921
asS'trials.thisN'
p139
I5
sg40
g41
sg16
g67
sg17
F2.8900000000000001
sg27
(lp140
S'return'
p141
asS'trials.thisRepN'
p142
I0
sg42
g43
sg22
Nsg19
g71
sS'trials.thisTrialN'
p143
I5
sg23
Nsg21
Nsg18
Nsa(dp144
g20
F5.3390000000000004
sg39
g11
sS'trials.thisIndex'
p145
g35
(g60
S'-\x00\x00\x00'
tRp146
sg25
Nsg53
V./img/smoo15_NeilPatrickHarris(Barney)1_1.png
p147
sg34
g38
sg24
Nsg52
g35
(g63
S'.\x00\x00\x00\x00\x00\x00\x00'
tRp148
sg32
g33
sg26
S'nil patrik harris'
p149
sg28
(lp150
F75.670702625786362
aF75.970631540723844
aF76.220353744412932
aF77.853051525122282
aF78.286237341984815
aF78.60258510960557
aF78.952703734405077
aF79.136078812032792
aF79.802465009213847
aF80.018915811679108
aF81.251763653721355
aF81.535095040982924
aF82.234469069016995
aF82.568028980635063
aF82.684447769161125
aF83.234382778939107
aF83.335048335275133
aF84.217367594452298
asS'trials.thisN'
p151
I6
sg40
g41
sg16
g67
sg17
F1.7569999999999999
sg27
(lp152
S'n'
aS'i'
aS'l'
aS'space'
p153
aS'p'
aS'a'
aS't'
aS'r'
aS'i'
aS'k'
aS'space'
p154
aS'h'
aS'a'
aS'r'
aS'r'
aS'i'
aS's'
aS'return'
p155
asS'trials.thisRepN'
p156
I0
sg42
g43
sg22
Nsg19
g71
sS'trials.thisTrialN'
p157
I6
sg23
Nsg21
Nsg18
Nsa(dp158
g20
Nsg39
g11
sS'trials.thisIndex'
p159
g35
(g60
S'%\x00\x00\x00'
tRp160
sg25
Nsg53
V./img/smoo15_AlysonHannigan(Lily)5_4.png
p161
sg34
g38
sg24
Nsg52
g35
(g63
S'&\x00\x00\x00\x00\x00\x00\x00'
tRp162
sg32
g33
sg26
S''
sg28
(lp163
F0.64995451325921749
asS'trials.thisN'
p164
I7
sg40
g41
sg16
g67
sg17
F4.2009999999999996
sg27
(lp165
S'return'
p166
asS'trials.thisRepN'
p167
I0
sg42
g43
sg22
F31.173999999999999
sg19
NsS'trials.thisTrialN'
p168
I7
sg23
Nsg21
g120
sg18
Nsa(dp169
g20
Nsg39
g11
sS'trials.thisIndex'
p170
g35
(g60
S'7\x00\x00\x00'
tRp171
sg25
Nsg53
V./img/smoo15_MariskaHargitay(Liv)6_5.png
p172
sg34
g38
sg24
Nsg52
g35
(g63
S'8\x00\x00\x00\x00\x00\x00\x00'
tRp173
sg32
g33
sg26
S''
sg28
(lp174
F0.28370413473930967
asS'trials.thisN'
p175
I8
sg40
g41
sg16
V2.nein
p176
sg17
F3.1059999999999999
sg27
(lp177
S'return'
p178
asS'trials.thisRepN'
p179
I0
sg42
g43
sg22
F3.7719999999999998
sg19
NsS'trials.thisTrialN'
p180
I8
sg23
Nsg21
S'host'
p181
sg18
Nsa(dp182
g20
Nsg39
g11
sS'trials.thisIndex'
p183
g35
(g60
S')\x00\x00\x00'
tRp184
sg25
Nsg53
V./img/smoo15_OmarEpps(DrEricForeman)1_5.png
p185
sg34
g38
sg24
Nsg52
g35
(g63
S'*\x00\x00\x00\x00\x00\x00\x00'
tRp186
sg32
g33
sg26
S''
sg28
(lp187
F0.083594876741699409
asS'trials.thisN'
p188
I9
sg40
g41
sg16
g67
sg17
F1.758
sg27
(lp189
S'return'
p190
asS'trials.thisRepN'
p191
I0
sg42
g43
sg22
F2.5739999999999998
sg19
NsS'trials.thisTrialN'
p192
I9
sg23
Nsg21
g120
sg18
Nsa(dp193
g20
Nsg39
g11
sS'trials.thisIndex'
p194
g35
(g60
S'\x16\x00\x00\x00'
tRp195
sg25
Nsg53
V./img/smoo15_JoachimLoew4_1.png
p196
sg34
g38
sg24
F0.75700000000000001
sg52
g35
(g63
S'\x17\x00\x00\x00\x00\x00\x00\x00'
tRp197
sg32
g33
sg26
S''
sg28
(lp198
F0.33358974424845655
asS'trials.thisN'
p199
I10
sg40
g41
sg16
g176
sg17
F1.407
sg27
(lp200
S'return'
p201
asS'trials.thisRepN'
p202
I0
sg42
g43
sg22
Nsg19
NsS'trials.thisTrialN'
p203
I10
sg23
g132
sg21
Nsg18
Nsa(dp204
g20
Nsg39
g11
sS'trials.thisIndex'
p205
g35
(g60
S'&\x00\x00\x00'
tRp206
sg25
Nsg53
V./img/smoo15_BarackObama2_1.png
p207
sg34
g38
sg24
F1.1240000000000001
sg52
g35
(g63
S"'\x00\x00\x00\x00\x00\x00\x00"
tRp208
sg32
g33
sg26
S'obama'
p209
sg28
(lp210
F1.1333210581142339
aF1.5164377787587
aF2.0660305152505316
aF2.2162769391834445
aF2.316113597518779
aF3.1823889969564334
asS'trials.thisN'
p211
I11
sg40
g41
sg16
g67
sg17
F1.2250000000000001
sg27
(lp212
S'o'
aS'b'
aS'a'
aS'm'
aS'a'
aS'return'
p213
asS'trials.thisRepN'
p214
I0
sg42
g43
sg22
Nsg19
NsS'trials.thisTrialN'
p215
I11
sg23
g132
sg21
Nsg18
Nsa(dp216
g20
F1.8069999999999999
sg39
g11
sS'trials.thisIndex'
p217
g35
(g60
S'2\x00\x00\x00'
tRp218
sg25
Nsg53
V./img/smoo15_LeonardoDiCaprio1_1.png
p219
sg34
g38
sg24
Nsg52
g35
(g63
S'3\x00\x00\x00\x00\x00\x00\x00'
tRp220
sg32
g33
sg26
S'leonardo di kaprio'
p221
sg28
(lp222
F1.0834328823584656
aF1.2829907178820577
aF1.3998489763234829
aF2.0497050098292675
aF2.3496512469391746
aF2.6493636347313441
aF2.8990033977115672
aF3.1490701201528282
aF3.3159467914210836
aF4.0487853308150079
aF4.3485939528945892
aF4.5651525377634243
aF5.5149849617882865
aF5.9980599167520268
aF6.3477259196151863
aF6.6644817206179141
aF6.7810843166334962
aF6.9643240246987261
aF7.5141791600162833
asS'trials.thisN'
p223
I12
sg40
g41
sg16
g67
sg17
F3.5899999999999999
sg27
(lp224
S'l'
aS'e'
aS'o'
aS'n'
aS'a'
aS'r'
aS'd'
aS'o'
aS'space'
p225
aS'd'
aS'i'
aS'space'
p226
aS'k'
aS'a'
aS'p'
aS'r'
aS'i'
aS'o'
aS'return'
p227
asS'trials.thisRepN'
p228
I0
sg42
g43
sg22
Nsg19
g71
sS'trials.thisTrialN'
p229
I12
sg23
Nsg21
Nsg18
Nsa(dp230
g20
Nsg39
g11
sS'trials.thisIndex'
p231
g35
(g60
S'?\x00\x00\x00'
tRp232
sg25
Nsg53
V./img/smoo15_JoachimLoew8_1.png
p233
sg34
g38
sg24
F0.95599999999999996
sg52
g35
(g63
S'@\x00\x00\x00\x00\x00\x00\x00'
tRp234
sg32
g33
sg26
S''
sg28
(lp235
F0.25020946996664861
asS'trials.thisN'
p236
I13
sg40
g41
sg16
g176
sg17
F1.169
sg27
(lp237
S'return'
p238
asS'trials.thisRepN'
p239
I0
sg42
g43
sg22
Nsg19
NsS'trials.thisTrialN'
p240
I13
sg23
g132
sg21
Nsg18
Nsa(dp241
g20
Nsg39
g11
sS'trials.thisIndex'
p242
g35
(g60
S'\x1c\x00\x00\x00'
tRp243
sg25
Nsg53
V./img/smoo15_GuentherJauch3_1.png
p244
sg34
g38
sg24
F0.64000000000000001
sg52
g35
(g63
S'\x1d\x00\x00\x00\x00\x00\x00\x00'
tRp245
sg32
g33
sg26
S''
sg28
(lp246
F0.083808837644028245
asS'trials.thisN'
p247
I14
sg40
g41
sg16
g176
sg17
F1.3080000000000001
sg27
(lp248
S'return'
p249
asS'trials.thisRepN'
p250
I0
sg42
g43
sg22
Nsg19
NsS'trials.thisTrialN'
p251
I14
sg23
g132
sg21
Nsg18
Nsa(dp252
g20
F9.9359999999999999
sg39
g11
sS'trials.thisIndex'
p253
g35
(g60
S'\x0c\x00\x00\x00'
tRp254
sg25
Nsg53
V./img/smoo15_GeorgeClooney3_1.png
p255
sg34
g38
sg24
Nsg52
g35
(g63
S'\r\x00\x00\x00\x00\x00\x00\x00'
tRp256
sg32
g33
sg26
S''
sg28
(lp257
F0.13370599526751903
asS'trials.thisN'
p258
I15
sg40
g41
sg16
g67
sg17
F2.8570000000000002
sg27
(lp259
S'return'
p260
asS'trials.thisRepN'
p261
I0
sg42
g43
sg22
Nsg19
g71
sS'trials.thisTrialN'
p262
I15
sg23
Nsg21
Nsg18
Nsa(dp263
g20
Nsg39
g11
sS'trials.thisIndex'
p264
g35
(g60
S'(\x00\x00\x00'
tRp265
sg25
Nsg53
V./img/smoo15_AngelaMerkel3_1.png
p266
sg34
g38
sg24
F0.67400000000000004
sg52
g35
(g63
S')\x00\x00\x00\x00\x00\x00\x00'
tRp267
sg32
g33
sg26
S'merkel'
p268
sg28
(lp269
F0.63371369401102129
aF1.0334625866744318
aF1.1833064305028529
aF1.5165805262859067
aF1.8497827671326377
aF2.2495595677410165
aF2.5328296858388057
asS'trials.thisN'
p270
I16
sg40
g41
sg16
g67
sg17
F1.224
sg27
(lp271
S'm'
aS'e'
aS'r'
aS'k'
aS'e'
aS'l'
aS'return'
p272
asS'trials.thisRepN'
p273
I0
sg42
g43
sg22
Nsg19
NsS'trials.thisTrialN'
p274
I16
sg23
g132
sg21
Nsg18
Nsa(dp275
g20
Nsg39
g11
sS'trials.thisIndex'
p276
g35
(g60
S'/\x00\x00\x00'
tRp277
sg25
Nsg53
V./img/smoo15_JoshRadnor(Ted)6_2.png
p278
sg34
g38
sg24
Nsg52
g35
(g63
S'0\x00\x00\x00\x00\x00\x00\x00'
tRp279
sg32
g33
sg26
S''
sg28
(lp280
F0.18376931743114255
asS'trials.thisN'
p281
I17
sg40
g41
sg16
g67
sg17
F2.6059999999999999
sg27
(lp282
S'return'
p283
asS'trials.thisRepN'
p284
I0
sg42
g43
sg22
F1.6559999999999999
sg19
NsS'trials.thisTrialN'
p285
I17
sg23
Nsg21
g120
sg18
Nsa(dp286
g20
F0.753
sg39
g11
sS'trials.thisIndex'
p287
g35
(g60
S'>\x00\x00\x00'
tRp288
sg25
Nsg53
V./img/smoo15_RobertSeanLeonard(Wilson)8_1.png
p289
sg34
g38
sg24
Nsg52
g35
(g63
S'?\x00\x00\x00\x00\x00\x00\x00'
tRp290
sg32
g33
sg26
S'ted mosbi'
p291
sg28
(lp292
F0.76679031703315559
aF1.0333721264432825
aF1.199935073933375
aF2.0661860940163024
aF2.4994546723664826
aF2.8158556896269147
aF3.5156233158995747
aF3.9321718282462825
aF4.2321729189006874
aF4.9318366121424333
asS'trials.thisN'
p293
I18
sg40
g41
sg16
g67
sg17
F15.417999999999999
sg27
(lp294
S't'
aS'e'
aS'd'
aS'space'
p295
aS'm'
aS'o'
aS's'
aS'b'
aS'i'
aS'return'
p296
asS'trials.thisRepN'
p297
I0
sg42
g43
sg22
Nsg19
g71
sS'trials.thisTrialN'
p298
I18
sg23
Nsg21
Nsg18
Nsa(dp299
g20
Nsg39
g11
sS'trials.thisIndex'
p300
g35
(g60
S'*\x00\x00\x00'
tRp301
sg25
Nsg53
V./img/smoo15_JoachimLoew1_1.png
p302
sg34
g38
sg24
F0.88500000000000001
sg52
g35
(g63
S'+\x00\x00\x00\x00\x00\x00\x00'
tRp303
sg32
g33
sg26
S''
sg28
(lp304
F0.20024943927455752
asS'trials.thisN'
p305
I19
sg40
g41
sg16
g176
sg17
F7.0819999999999999
sg27
(lp306
S'return'
p307
asS'trials.thisRepN'
p308
I0
sg42
g43
sg22
Nsg19
NsS'trials.thisTrialN'
p309
I19
sg23
g132
sg21
Nsg18
Nsa(dp310
g20
Nsg39
g11
sS'trials.thisIndex'
p311
g35
(g60
S'5\x00\x00\x00'
tRp312
sg25
Nsg53
V./img/smoo15_LisaEdelstein(DrLisaCuddy)6_3.png
p313
sg34
g38
sg24
F0.82399999999999995
sg52
g35
(g63
S'6\x00\x00\x00\x00\x00\x00\x00'
tRp314
sg32
g33
sg26
S''
sg28
(lp315
F0.10033290648243565
asS'trials.thisN'
p316
I20
sg40
g41
sg16
g176
sg17
F1.292
sg27
(lp317
S'return'
p318
asS'trials.thisRepN'
p319
I0
sg42
g43
sg22
Nsg19
NsS'trials.thisTrialN'
p320
I20
sg23
S'sport'
p321
sg21
Nsg18
Nsa(dp322
g20
F3.0899999999999999
sg39
g11
sS'trials.thisIndex'
p323
g35
(g60
S'\x1b\x00\x00\x00'
tRp324
sg25
Nsg53
V./img/smoo15_HughLaurie(DrHouse)5_3.png
p325
sg34
g38
sg24
Nsg52
g35
(g63
S'\x1c\x00\x00\x00\x00\x00\x00\x00'
tRp326
sg32
g33
sg26
S'chyu lori'
p327
sg28
(lp328
F1.4664395751315169
aF2.182939777865613
aF2.4661669113156677
aF2.5330295323783503
aF2.799470198166091
aF3.9822611336658156
aF4.1489248063753621
aF4.6152739212775487
aF4.6820095130806294
aF5.265195394098555
asS'trials.thisN'
p329
I21
sg40
g41
sg16
g67
sg17
F1.274
sg27
(lp330
S'c'
aS'h'
aS'y'
aS'u'
aS'space'
p331
aS'l'
aS'o'
aS'r'
aS'i'
aS'return'
p332
asS'trials.thisRepN'
p333
I0
sg42
g43
sg22
Nsg19
g71
sS'trials.thisTrialN'
p334
I21
sg23
Nsg21
Nsg18
Nsa(dp335
g20
F0.80200000000000005
sg39
g11
sS'trials.thisIndex'
p336
g35
(g60
S'\x19\x00\x00\x00'
tRp337
sg25
Nsg53
V./img/smoo15_TomCruise4_1.png
p338
sg34
g38
sg24
Nsg52
g35
(g63
S'\x1a\x00\x00\x00\x00\x00\x00\x00'
tRp339
sg32
g33
sg26
S''
sg28
(lp340
F0.36705874654217041
asS'trials.thisN'
p341
I22
sg40
g41
sg16
g67
sg17
F8.7420000000000009
sg27
(lp342
S'return'
p343
asS'trials.thisRepN'
p344
I0
sg42
g43
sg22
Nsg19
g71
sS'trials.thisTrialN'
p345
I22
sg23
Nsg21
Nsg18
Nsa(dp346
g20
Nsg39
g11
sS'trials.thisIndex'
p347
g35
(g60
S'A\x00\x00\x00'
tRp348
sg25
Nsg53
V./img/smoo15_NicoleKidman3_1.png
p349
sg34
g38
sg24
F2.391
sg52
g35
(g63
S'B\x00\x00\x00\x00\x00\x00\x00'
tRp350
sg32
g33
sg26
S''
sg28
(lp351
F0.93324195352943207
asS'trials.thisN'
p352
I23
sg40
g41
sg16
g176
sg17
F2.1070000000000002
sg27
(lp353
S'return'
p354
asS'trials.thisRepN'
p355
I0
sg42
g43
sg22
Nsg19
NsS'trials.thisTrialN'
p356
I23
sg23
g321
sg21
Nsg18
Nsa(dp357
g20
Nsg39
g11
sS'trials.thisIndex'
p358
g35
(g60
S'D\x00\x00\x00'
tRp359
sg25
Nsg53
V./img/smoo15_BritneySpears5_1.png
p360
sg34
g38
sg24
Nsg52
g35
(g63
S'E\x00\x00\x00\x00\x00\x00\x00'
tRp361
sg32
g33
sg26
S'britney'
p362
sg28
(lp363
F2.6994243906447082
aF3.2492156905518641
aF3.6321450751147495
aF4.1487679444871901
aF4.3986563127127738
aF4.9819047460186994
aF5.4815448297813418
aF6.2813964365086576
aF6.7644088391843979
aF7.4642479996091424
asS'trials.thisN'
p364
I24
sg40
g41
sg16
g67
sg17
F1.974
sg27
(lp365
S'b'
aS'r'
aS'i'
aS't'
aS'm'
aS'backspace'
p366
aS'n'
aS'e'
aS'y'
aS'return'
p367
asS'trials.thisRepN'
p368
I0
sg42
g43
sg22
F1.4079999999999999
sg19
NsS'trials.thisTrialN'
p369
I24
sg23
Nsg21
g120
sg18
Nsa(dp370
g20
Nsg39
g11
sS'trials.thisIndex'
p371
g35
(g60
S'#\x00\x00\x00'
tRp372
sg25
Nsg53
V./img/smoo15_BastianSchweinsteiger6_2.png
p373
sg34
g38
sg24
F1.673
sg52
g35
(g63
S'$\x00\x00\x00\x00\x00\x00\x00'
tRp374
sg32
g33
sg26
S''
sg28
(lp375
F0.067199441071352339
asS'trials.thisN'
p376
I25
sg40
g41
sg16
g176
sg17
F1.319
sg27
(lp377
S'return'
p378
asS'trials.thisRepN'
p379
I0
sg42
g43
sg22
Nsg19
NsS'trials.thisTrialN'
p380
I25
sg23
g132
sg21
Nsg18
Nsa(dp381
g20
Nsg39
g11
sS'trials.thisIndex'
p382
g35
(g60
S'\x0b\x00\x00\x00'
tRp383
sg25
Nsg53
V./img/smoo15_MariskaHargitay(Liv)8_8.png
p384
sg34
g38
sg24
F1.3240000000000001
sg52
g35
(g63
S'\x0c\x00\x00\x00\x00\x00\x00\x00'
tRp385
sg32
g33
sg26
S''
sg28
(lp386
F0.083769702367135324
asS'trials.thisN'
p387
I26
sg40
g41
sg16
g176
sg17
F1.6899999999999999
sg27
(lp388
S'return'
p389
asS'trials.thisRepN'
p390
I0
sg42
g43
sg22
Nsg19
NsS'trials.thisTrialN'
p391
I26
sg23
g321
sg21
Nsg18
Nsa(dp392
g20
F1.1240000000000001
sg39
g11
sS'trials.thisIndex'
p393
g35
(g60
S'\x1f\x00\x00\x00'
tRp394
sg25
Nsg53
V./img/smoo15_TomCruise1_1.png
p395
sg34
g38
sg24
Nsg52
g35
(g63
S' \x00\x00\x00\x00\x00\x00\x00'
tRp396
sg32
g33
sg26
S''
sg28
(lp397
F0.11727848149894271
asS'trials.thisN'
p398
I27
sg40
g41
sg16
g67
sg17
F3.0059999999999998
sg27
(lp399
S'return'
p400
asS'trials.thisRepN'
p401
I0
sg42
g43
sg22
Nsg19
g106
sS'trials.thisTrialN'
p402
I27
sg23
Nsg21
Nsg18
Nsa(dp403
g20
F0.79000000000000004
sg39
g11
sS'trials.thisIndex'
p404
g35
(g60
S'E\x00\x00\x00'
tRp405
sg25
Nsg53
V./img/smoo15_JasonSegel(Marshall)7_1.png
p406
sg34
g38
sg24
Nsg52
g35
(g63
S'F\x00\x00\x00\x00\x00\x00\x00'
tRp407
sg32
g33
sg26
S''
sg28
(lp408
F0.13381538157591422
asS'trials.thisN'
p409
I28
sg40
g41
sg16
g67
sg17
F3.173
sg27
(lp410
S'return'
p411
asS'trials.thisRepN'
p412
I0
sg42
g43
sg22
Nsg19
g71
sS'trials.thisTrialN'
p413
I28
sg23
Nsg21
Nsg18
Nsa(dp414
g20
Nsg39
g11
sS'trials.thisIndex'
p415
g35
(g60
S'\x01\x00\x00\x00'
tRp416
sg25
Nsg53
V./img/smoo15_WillSmith5_1.png
p417
sg34
g38
sg24
Nsg52
g35
(g63
S'\x02\x00\x00\x00\x00\x00\x00\x00'
tRp418
sg32
g33
sg26
S''
sg28
(lp419
F0.18364774144538387
asS'trials.thisN'
p420
I29
sg40
g41
sg16
g67
sg17
F1.1739999999999999
sg27
(lp421
S'return'
p422
asS'trials.thisRepN'
p423
I0
sg42
g43
sg22
F1.2569999999999999
sg19
NsS'trials.thisTrialN'
p424
I29
sg23
Nsg21
g120
sg18
Nsa(dp425
g20
Nsg39
g11
sS'trials.thisIndex'
p426
g35
(g60
S'\x07\x00\x00\x00'
tRp427
sg25
Nsg53
V./img/smoo15_AngelaMerkel4_1.png
p428
sg34
g38
sg24
F0.876
sg52
g35
(g63
S'\x08\x00\x00\x00\x00\x00\x00\x00'
tRp429
sg32
g33
sg26
S'merkel'
p430
sg28
(lp431
F0.51701999620127026
aF1.0167665792432672
aF1.1834697080121259
aF1.5165750730102445
aF1.8498908703168127
aF2.1996415593548591
aF2.4995890795889864
asS'trials.thisN'
p432
I30
sg40
g41
sg16
g67
sg17
F1.0740000000000001
sg27
(lp433
S'm'
aS'e'
aS'r'
aS'k'
aS'e'
aS'l'
aS'return'
p434
asS'trials.thisRepN'
p435
I0
sg42
g43
sg22
Nsg19
NsS'trials.thisTrialN'
p436
I30
sg23
g132
sg21
Nsg18
Nsa(dp437
g20
Nsg39
g11
sS'trials.thisIndex'
p438
g35
(g60
S'F\x00\x00\x00'
tRp439
sg25
Nsg53
V./img/smoo15_AngelaMerkel1_1.png
p440
sg34
g38
sg24
F0.624
sg52
g35
(g63
S'G\x00\x00\x00\x00\x00\x00\x00'
tRp441
sg32
g33
sg26
S'merkel'
p442
sg28
(lp443
F0.60005863875994692
aF0.99988002792088082
aF1.1501062426541466
aF1.8830714905270725
aF2.2164065346933057
aF2.5827791307601728
aF2.8827337081766018
asS'trials.thisN'
p444
I31
sg40
g41
sg16
g67
sg17
F1.29
sg27
(lp445
S'm'
aS'e'
aS'r'
aS'k'
aS'e'
aS'l'
aS'return'
p446
asS'trials.thisRepN'
p447
I0
sg42
g43
sg22
Nsg19
NsS'trials.thisTrialN'
p448
I31
sg23
g132
sg21
Nsg18
Nsa(dp449
g20
F0.73399999999999999
sg39
g11
sS'trials.thisIndex'
p450
g35
(g60
S'\x11\x00\x00\x00'
tRp451
sg25
Nsg53
V./img/smoo15_HughLaurie(DrHouse)4_1.png
p452
sg34
g38
sg24
Nsg52
g35
(g63
S'\x12\x00\x00\x00\x00\x00\x00\x00'
tRp453
sg32
g33
sg26
S''
sg28
(lp454
F0.750281966464172
asS'trials.thisN'
p455
I32
sg40
g41
sg16
g67
sg17
F4.9889999999999999
sg27
(lp456
S'return'
p457
asS'trials.thisRepN'
p458
I0
sg42
g43
sg22
Nsg19
g71
sS'trials.thisTrialN'
p459
I32
sg23
Nsg21
Nsg18
Nsa(dp460
g20
Nsg39
g11
sS'trials.thisIndex'
p461
g35
(g60
S'\x1d\x00\x00\x00'
tRp462
sg25
Nsg53
V./img/smoo15_KatjaBurkard4_1.png
p463
sg34
g38
sg24
Nsg52
g35
(g63
S'\x1e\x00\x00\x00\x00\x00\x00\x00'
tRp464
sg32
g33
sg26
S''
sg28
(lp465
F0.15062237922029453
asS'trials.thisN'
p466
I33
sg40
g41
sg16
g176
sg17
F1.4730000000000001
sg27
(lp467
S'return'
p468
asS'trials.thisRepN'
p469
I0
sg42
g43
sg22
F0.84099999999999997
sg19
NsS'trials.thisTrialN'
p470
I33
sg23
Nsg21
g120
sg18
Nsa(dp471
g20
Nsg39
g11
sS'trials.thisIndex'
p472
g35
(g60
S'1\x00\x00\x00'
tRp473
sg25
Nsg53
V./img/smoo15_OmarEpps(DrEricForeman)2_2.png
p474
sg34
g38
sg24
Nsg52
g35
(g63
S'2\x00\x00\x00\x00\x00\x00\x00'
tRp475
sg32
g33
sg26
S''
sg28
(lp476
F0.083797610310284654
asS'trials.thisN'
p477
I34
sg40
g41
sg16
g67
sg17
F1.524
sg27
(lp478
S'return'
p479
asS'trials.thisRepN'
p480
I0
sg42
g43
sg22
F1.2410000000000001
sg19
NsS'trials.thisTrialN'
p481
I34
sg23
Nsg21
g120
sg18
Nsa(dp482
g20
F0.45200000000000001
sg39
g11
sS'trials.thisIndex'
p483
g35
(g60
S'0\x00\x00\x00'
tRp484
sg25
Nsg53
V./img/smoo15_TomCruise5_1.png
p485
sg34
g38
sg24
Nsg52
g35
(g63
S'1\x00\x00\x00\x00\x00\x00\x00'
tRp486
sg32
g33
sg26
S''
sg28
(lp487
F49.680702330666463
asS'trials.thisN'
p488
I35
sg40
g41
sg16
g67
sg17
F26.265000000000001
sg27
(lp489
S'return'
p490
asS'trials.thisRepN'
p491
I0
sg42
g43
sg22
Nsg19
g71
sS'trials.thisTrialN'
p492
I35
sg23
Nsg21
Nsg18
Nsa(dp493
g20
F0.57399999999999995
sg39
g11
sS'trials.thisIndex'
p494
g35
(g60
S'=\x00\x00\x00'
tRp495
sg25
Nsg53
V./img/smoo15_RobertSeanLeonard(Wilson)1_1.png
p496
sg34
g38
sg24
Nsg52
g35
(g63
S'>\x00\x00\x00\x00\x00\x00\x00'
tRp497
sg32
g33
sg26
S''
sg28
(lp498
F0.65024064987665042
asS'trials.thisN'
p499
I36
sg40
g41
sg16
g67
sg17
F1.468
sg27
(lp500
S'return'
p501
asS'trials.thisRepN'
p502
I0
sg42
g43
sg22
Nsg19
g71
sS'trials.thisTrialN'
p503
I36
sg23
Nsg21
Nsg18
Nsa(dp504
g20
Nsg39
g11
sS'trials.thisIndex'
p505
g35
(g60
S'.\x00\x00\x00'
tRp506
sg25
Nsg53
V./img/smoo15_BarackObama4_1.png
p507
sg34
g38
sg24
F0.94099999999999995
sg52
g35
(g63
S'/\x00\x00\x00\x00\x00\x00\x00'
tRp508
sg32
g33
sg26
S'obama'
p509
sg28
(lp510
F0.3668370868981583
aF1.0001106694326154
aF1.3665124565668521
aF1.7330948433827871
aF2.116126557071766
aF2.482806461299333
asS'trials.thisN'
p511
I37
sg40
g41
sg16
g67
sg17
F1.1919999999999999
sg27
(lp512
S'o'
aS'b'
aS'a'
aS'm'
aS'a'
aS'return'
p513
asS'trials.thisRepN'
p514
I0
sg42
g43
sg22
Nsg19
NsS'trials.thisTrialN'
p515
I37
sg23
g132
sg21
Nsg18
Nsa(dp516
g20
Nsg39
g11
sS'trials.thisIndex'
p517
g35
(g60
S'6\x00\x00\x00'
tRp518
sg25
Nsg53
V./img/smoo15_MariskaHargitay(Liv)4_4.png
p519
sg34
g38
sg24
Nsg52
g35
(g63
S'7\x00\x00\x00\x00\x00\x00\x00'
tRp520
sg32
g33
sg26
S''
sg28
(lp521
F0.11729387898594723
asS'trials.thisN'
p522
I38
sg40
g41
sg16
g176
sg17
F1.675
sg27
(lp523
S'return'
p524
asS'trials.thisRepN'
p525
I0
sg42
g43
sg22
F0.75700000000000001
sg19
NsS'trials.thisTrialN'
p526
I38
sg23
Nsg21
g120
sg18
Nsa(dp527
g20
Nsg39
g11
sS'trials.thisIndex'
p528
g35
(g60
S'\x15\x00\x00\x00'
tRp529
sg25
Nsg53
V./img/smoo15_WillSmith1_1.png
p530
sg34
g38
sg24
Nsg52
g35
(g63
S'\x16\x00\x00\x00\x00\x00\x00\x00'
tRp531
sg32
g33
sg26
S''
sg28
(lp532
F0.25028774052043445
asS'trials.thisN'
p533
I39
sg40
g41
sg16
g67
sg17
F2.573
sg27
(lp534
S'return'
p535
asS'trials.thisRepN'
p536
I0
sg42
g43
sg22
F4.9889999999999999
sg19
NsS'trials.thisTrialN'
p537
I39
sg23
Nsg21
g120
sg18
Nsa(dp538
g20
Nsg39
g11
sS'trials.thisIndex'
p539
g35
(g60
S'\x03\x00\x00\x00'
tRp540
sg25
Nsg53
V./img/smoo15_UrsulavonderLeyen1_1.png
p541
sg34
g38
sg24
F1.79
sg52
g35
(g63
S'\x04\x00\x00\x00\x00\x00\x00\x00'
tRp542
sg32
g33
sg26
S''
sg28
(lp543
F0.36689258200567565
asS'trials.thisN'
p544
I40
sg40
g41
sg16
g176
sg17
F1.524
sg27
(lp545
S'return'
p546
asS'trials.thisRepN'
p547
I0
sg42
g43
sg22
Nsg19
NsS'trials.thisTrialN'
p548
I40
sg23
g132
sg21
Nsg18
Nsa(dp549
g20
F1.7070000000000001
sg39
g11
sS'trials.thisIndex'
p550
g35
(g60
S'\n\x00\x00\x00'
tRp551
sg25
Nsg53
V./img/smoo15_LeonardoDiCaprio3_1.png
p552
sg34
g38
sg24
Nsg52
g35
(g63
S'\x0b\x00\x00\x00\x00\x00\x00\x00'
tRp553
sg32
g33
sg26
S'leonardo di kaprio'
p554
sg28
(lp555
F0.46696341044116707
aF0.90011329983462929
aF1.1998760502374353
aF1.7163471902149467
aF2.2827706621428661
aF2.5660138346411259
aF2.7658189922858583
aF3.1159328053709032
aF4.1322522159553046
aF4.5152152825176017
aF5.4312957754427771
aF6.3146748949129687
aF6.5978770074470958
aF6.8809597894651233
aF7.7640447527937795
aF8.1972414762094559
aF9.0648003202677501
aF9.4467243772996881
aF9.7300281774005271
aF9.9131058910788852
aF10.179783293215223
asS'trials.thisN'
p556
I41
sg40
g41
sg16
g67
sg17
F1.274
sg27
(lp557
S'l'
aS'e'
aS'o'
aS'n'
aS'a'
aS'r'
aS'd'
aS'i'
aS'backspace'
p558
aS'o'
aS'space'
p559
aS'd'
aS'i'
aS'space'
p560
aS'k'
aS'a'
aS'p'
aS'r'
aS'i'
aS'o'
aS'return'
p561
asS'trials.thisRepN'
p562
I0
sg42
g43
sg22
Nsg19
g71
sS'trials.thisTrialN'
p563
I41
sg23
Nsg21
Nsg18
Nsa(dp564
g20
F4.5549999999999997
sg39
g11
sS'trials.thisIndex'
p565
g35
(g60
S'\x14\x00\x00\x00'
tRp566
sg25
Nsg53
V./img/smoo15_NeilPatrickHarris(Barney)3_7.png
p567
sg34
g38
sg24
Nsg52
g35
(g63
S'\x15\x00\x00\x00\x00\x00\x00\x00'
tRp568
sg32
g33
sg26
S'nil patrik harris'
p569
sg28
(lp570
F6.4313358730632899
aF6.5477059028835356
aF6.7977498498748901
aF6.9477380451353383
aF7.3972663688109606
aF7.5475522488031856
aF8.0972880536046432
aF8.2470295683069708
aF8.5471544804131554
aF8.7303040490260173
aF8.8304393544349296
aF10.113204563302133
aF10.229690715828838
aF10.546359905973077
aF10.679518328141057
aF10.812974755821415
aF11.31271364011991
aF11.39591395628122
asS'trials.thisN'
p571
I42
sg40
g41
sg16
g67
sg17
F1.4850000000000001
sg27
(lp572
S'n'
aS'i'
aS'l'
aS'space'
p573
aS'p'
aS'a'
aS't'
aS'r'
aS'i'
aS'k'
aS'space'
p574
aS'h'
aS'a'
aS'r'
aS'r'
aS'i'
aS's'
aS'return'
p575
asS'trials.thisRepN'
p576
I0
sg42
g43
sg22
Nsg19
g106
sS'trials.thisTrialN'
p577
I42
sg23
Nsg21
Nsg18
Nsa(dp578
g20
F15.701000000000001
sg39
g11
sS'trials.thisIndex'
p579
g35
(g60
S'\x1a\x00\x00\x00'
tRp580
sg25
Nsg53
V./img/smoo15_JasonSegel(Marshall)9_1.png
p581
sg34
g38
sg24
Nsg52
g35
(g63
S'\x1b\x00\x00\x00\x00\x00\x00\x00'
tRp582
sg32
g33
sg26
S'dgeison sigel'
p583
sg28
(lp584
F2.5826697444535966
aF2.6993984073869797
aF2.8491238830411021
aF4.1152052741526859
aF4.6319664001202909
aF5.0483336712222808
aF5.1484356154123816
aF5.3482792667728063
aF9.2634452131787839
aF9.363139444767512
aF9.8298507213730772
aF10.096460438726353
aF10.212964234206083
aF13.444901058321193
asS'trials.thisN'
p585
I43
sg40
g41
sg16
g67
sg17
F1.484
sg27
(lp586
S'd'
aS'g'
aS'e'
aS'i'
aS's'
aS'o'
aS'n'
aS'space'
p587
aS's'
aS'i'
aS'g'
aS'e'
aS'l'
aS'return'
p588
asS'trials.thisRepN'
p589
I0
sg42
g43
sg22
Nsg19
g71
sS'trials.thisTrialN'
p590
I43
sg23
Nsg21
Nsg18
Nsa(dp591
g20
Nsg39
g11
sS'trials.thisIndex'
p592
g35
(g60
S' \x00\x00\x00'
tRp593
sg25
Nsg53
V./img/smoo15_Ice-T(OdafinFinTutuola)7_1.png
p594
sg34
g38
sg24
F6.1219999999999999
sg52
g35
(g63
S'!\x00\x00\x00\x00\x00\x00\x00'
tRp595
sg32
g33
sg26
S''
sg28
(lp596
F0.30039982138805499
asS'trials.thisN'
p597
I44
sg40
g41
sg16
g176
sg17
F3.202
sg27
(lp598
S'return'
p599
asS'trials.thisRepN'
p600
I0
sg42
g43
sg22
Nsg19
NsS'trials.thisTrialN'
p601
I44
sg23
g132
sg21
Nsg18
Nsa(dp602
g20
Nsg39
g11
sS'trials.thisIndex'
p603
g35
(g60
S'+\x00\x00\x00'
tRp604
sg25
Nsg53
V./img/smoo15_GuentherJauch2_1.png
p605
sg34
g38
sg24
F1.54
sg52
g35
(g63
S',\x00\x00\x00\x00\x00\x00\x00'
tRp606
sg32
g33
sg26
S''
sg28
(lp607
F0.066746177573804744
asS'trials.thisN'
p608
I45
sg40
g41
sg16
g176
sg17
F1.341
sg27
(lp609
S'return'
p610
asS'trials.thisRepN'
p611
I0
sg42
g43
sg22
Nsg19
NsS'trials.thisTrialN'
p612
I45
sg23
g132
sg21
Nsg18
Nsa(dp613
g20
Nsg39
g11
sS'trials.thisIndex'
p614
g35
(g60
S'\x18\x00\x00\x00'
tRp615
sg25
Nsg53
V./img/smoo15_JasonSegel(Marshall)6_1.png
p616
sg34
g38
sg24
F0.70699999999999996
sg52
g35
(g63
S'\x19\x00\x00\x00\x00\x00\x00\x00'
tRp617
sg32
g33
sg26
S''
sg28
(lp618
F0.21709845922487148
asS'trials.thisN'
p619
I46
sg40
g41
sg16
g176
sg17
F2.141
sg27
(lp620
S'return'
p621
asS'trials.thisRepN'
p622
I0
sg42
g43
sg22
Nsg19
NsS'trials.thisTrialN'
p623
I46
sg23
g321
sg21
Nsg18
Nsa(dp624
g20
F1.2410000000000001
sg39
g11
sS'trials.thisIndex'
p625
g35
(g60
S'\x10\x00\x00\x00'
tRp626
sg25
Nsg53
V./img/smoo15_GeorgeClooney11_1.png
p627
sg34
g38
sg24
Nsg52
g35
(g63
S'\x11\x00\x00\x00\x00\x00\x00\x00'
tRp628
sg32
g33
sg26
S''
sg28
(lp629
F0.28369803990062792
asS'trials.thisN'
p630
I47
sg40
g41
sg16
g67
sg17
F2.1739999999999999
sg27
(lp631
S'return'
p632
asS'trials.thisRepN'
p633
I0
sg42
g43
sg22
Nsg19
g71
sS'trials.thisTrialN'
p634
I47
sg23
Nsg21
Nsg18
Nsa(dp635
g20
F2.7389999999999999
sg39
g11
sS'trials.thisIndex'
p636
g35
(g60
S'G\x00\x00\x00'
tRp637
sg25
Nsg53
V./img/smoo15_HughLaurie(DrHouse)2_1.png
p638
sg34
g38
sg24
Nsg52
g35
(g63
S'H\x00\x00\x00\x00\x00\x00\x00'
tRp639
sg32
g33
sg26
S'chyu lori'
p640
sg28
(lp641
F0.93344083772535669
aF1.2166108721648925
aF1.8831905002643907
aF2.2328016495848715
aF2.5159784204242897
aF2.7993944938589266
aF2.9324252452042856
aF3.3325606789258018
aF3.6323997751969728
aF3.8990912916960951
asS'trials.thisN'
p642
I48
sg40
g41
sg16
g67
sg17
F1.0409999999999999
sg27
(lp643
S'c'
aS'h'
aS'y'
aS'u'
aS'space'
p644
aS'l'
aS'o'
aS'r'
aS'i'
aS'return'
p645
asS'trials.thisRepN'
p646
I0
sg42
g43
sg22
Nsg19
g71
sS'trials.thisTrialN'
p647
I48
sg23
Nsg21
Nsg18
Nsa(dp648
g20
Nsg39
g11
sS'trials.thisIndex'
p649
g35
(g60
S'$\x00\x00\x00'
tRp650
sg25
Nsg53
V./img/smoo15_Ice-T(OdafinFinTutuola)5_1.png
p651
sg34
g38
sg24
F1.74
sg52
g35
(g63
S'%\x00\x00\x00\x00\x00\x00\x00'
tRp652
sg32
g33
sg26
S''
sg28
(lp653
F0.150335601039842
asS'trials.thisN'
p654
I49
sg40
g41
sg16
g176
sg17
F1.2569999999999999
sg27
(lp655
S'return'
p656
asS'trials.thisRepN'
p657
I0
sg42
g43
sg22
Nsg19
NsS'trials.thisTrialN'
p658
I49
sg23
g132
sg21
Nsg18
Nsa(dp659
g20
Nsg39
g11
sS'trials.thisIndex'
p660
g35
(g60
S'@\x00\x00\x00'
tRp661
sg25
Nsg53
V./img/smoo15_UrsulavonderLeyen4_1.png
p662
sg34
g38
sg24
Nsg52
g35
(g63
S'A\x00\x00\x00\x00\x00\x00\x00'
tRp663
sg32
g33
sg26
S''
sg28
(lp664
F0.21700607430830132
asS'trials.thisN'
p665
I50
sg40
g41
sg16
g176
sg17
F1.4410000000000001
sg27
(lp666
S'return'
p667
asS'trials.thisRepN'
p668
I0
sg42
g43
sg22
F0.95799999999999996
sg19
NsS'trials.thisTrialN'
p669
I50
sg23
Nsg21
g181
sg18
Nsa(dp670
g20
F1.036
sg39
g11
sS'trials.thisIndex'
p671
g35
(g60
S"'\x00\x00\x00"
tRp672
sg25
Nsg53
V./img/smoo15_NeilPatrickHarris(Barney)2_2.png
p673
sg34
g38
sg24
Nsg52
g35
(g63
S'(\x00\x00\x00\x00\x00\x00\x00'
tRp674
sg32
g33
sg26
S'nil patrik harris'
p675
sg28
(lp676
F1.0167008191456262
aF1.2499031241495686
aF1.4497904017189285
aF1.7330646899699786
aF2.0327857388474513
aF2.5658470285416115
aF4.2320869496033993
aF4.3823128435560648
aF4.6818629161807621
aF4.8151153271701332
aF5.2815003695395717
aF6.6803350364662037
aF7.0301441076371702
aF7.2967371443810407
aF7.4304652735354466
aF7.6804322330972354
aF8.0470697942382685
aF8.49690157670193
asS'trials.thisN'
p677
I51
sg40
g41
sg16
g67
sg17
F6.0220000000000002
sg27
(lp678
S'n'
aS'i'
aS'l'
aS'space'
p679
aS'p'
aS'a'
aS't'
aS'r'
aS'i'
aS'k'
aS'space'
p680
aS'h'
aS'a'
aS'r'
aS'r'
aS'i'
aS's'
aS'return'
p681
asS'trials.thisRepN'
p682
I0
sg42
g43
sg22
Nsg19
g71
sS'trials.thisTrialN'
p683
I51
sg23
Nsg21
Nsg18
Nsa(dp684
g20
F0.72399999999999998
sg39
g11
sS'trials.thisIndex'
p685
g35
(g60
S':\x00\x00\x00'
tRp686
sg25
Nsg53
V./img/smoo15_JoshRadnor(Ted)1_2.png
p687
sg34
g38
sg24
Nsg52
g35
(g63
S';\x00\x00\x00\x00\x00\x00\x00'
tRp688
sg32
g33
sg26
S''
sg28
(lp689
F0.30019965406972915
asS'trials.thisN'
p690
I52
sg40
g41
sg16
g67
sg17
F1.786
sg27
(lp691
S'return'
p692
asS'trials.thisRepN'
p693
I0
sg42
g43
sg22
Nsg19
g71
sS'trials.thisTrialN'
p694
I52
sg23
Nsg21
Nsg18
Nsa(dp695
g20
Nsg39
g11
sS'trials.thisIndex'
p696
g35
(g60
S'"\x00\x00\x00'
tRp697
sg25
Nsg53
V./img/smoo15_KatjaBurkard1_1.png
p698
sg34
g38
sg24
Nsg52
g35
(g63
S'#\x00\x00\x00\x00\x00\x00\x00'
tRp699
sg32
g33
sg26
S''
sg28
(lp700
F0.10016674194230291
asS'trials.thisN'
p701
I53
sg40
g41
sg16
g176
sg17
F1.391
sg27
(lp702
S'return'
p703
asS'trials.thisRepN'
p704
I0
sg42
g43
sg22
F0.65600000000000003
sg19
NsS'trials.thisTrialN'
p705
I53
sg23
Nsg21
g120
sg18
Nsa(dp706
g20
Nsg39
g11
sS'trials.thisIndex'
p707
g35
(g60
S'\x06\x00\x00\x00'
tRp708
sg25
Nsg53
V./img/smoo15_LisaEdelstein(DrLisaCuddy)2_2.png
p709
sg34
g38
sg24
Nsg52
g35
(g63
S'\x07\x00\x00\x00\x00\x00\x00\x00'
tRp710
sg32
g33
sg26
S''
sg28
(lp711
F0.083878767893111217
asS'trials.thisN'
p712
I54
sg40
g41
sg16
g67
sg17
F2.7410000000000001
sg27
(lp713
S'return'
p714
asS'trials.thisRepN'
p715
I0
sg42
g43
sg22
F0.54000000000000004
sg19
NsS'trials.thisTrialN'
p716
I54
sg23
Nsg21
g120
sg18
Nsa(dp717
g20
Nsg39
g11
sS'trials.thisIndex'
p718
g35
(g60
S'\x00\x00\x00\x00'
tRp719
sg25
Nsg53
V./img/smoo15_Ice-T(OdafinFinTutuola)6_1.png
p720
sg34
g38
sg24
F1.456
sg52
g35
(g63
S'\x01\x00\x00\x00\x00\x00\x00\x00'
tRp721
sg32
g33
sg26
S'boks'
p722
sg28
(lp723
F0.91677049277132028
aF1.2330832952666242
aF1.4330793175831786
aF1.8496226974348247
aF2.1661465738015977
asS'trials.thisN'
p724
I55
sg40
g41
sg16
g176
sg17
F1.258
sg27
(lp725
S'b'
aS'o'
aS'k'
aS's'
aS'return'
p726
asS'trials.thisRepN'
p727
I0
sg42
g43
sg22
Nsg19
NsS'trials.thisTrialN'
p728
I55
sg23
g321
sg21
Nsg18
Nsa(dp729
g20
Nsg39
g11
sS'trials.thisIndex'
p730
g35
(g60
S'4\x00\x00\x00'
tRp731
sg25
Nsg53
V./img/smoo15_GuentherJauch4_1.png
p732
sg34
g38
sg24
F1.8899999999999999
sg52
g35
(g63
S'5\x00\x00\x00\x00\x00\x00\x00'
tRp733
sg32
g33
sg26
S''
sg28
(lp734
F0.18376386415184243
asS'trials.thisN'
p735
I56
sg40
g41
sg16
g176
sg17
F1.224
sg27
(lp736
S'return'
p737
asS'trials.thisRepN'
p738
I0
sg42
g43
sg22
Nsg19
NsS'trials.thisTrialN'
p739
I56
sg23
g132
sg21
Nsg18
Nsa(dp740
g20
Nsg39
g11
sS'trials.thisIndex'
p741
g35
(g60
S'<\x00\x00\x00'
tRp742
sg25
Nsg53
V./img/smoo15_OmarEpps(DrEricForeman)3_1.png
p743
sg34
g38
sg24
Nsg52
g35
(g63
S'=\x00\x00\x00\x00\x00\x00\x00'
tRp744
sg32
g33
sg26
S''
sg28
(lp745
F0.25024347274847969
asS'trials.thisN'
p746
I57
sg40
g41
sg16
g67
sg17
F4.9059999999999997
sg27
(lp747
S'return'
p748
asS'trials.thisRepN'
p749
I0
sg42
g43
sg22
F0.95199999999999996
sg19
NsS'trials.thisTrialN'
p750
I57
sg23
Nsg21
g120
sg18
Nsa(dp751
g20
F1.052
sg39
g11
sS'trials.thisIndex'
p752
g35
(g60
S'\x02\x00\x00\x00'
tRp753
sg25
Nsg53
V./img/smoo15_JoshRadnor(Ted)3_1.png
p754
sg34
g38
sg24
Nsg52
g35
(g63
S'\x03\x00\x00\x00\x00\x00\x00\x00'
tRp755
sg32
g33
sg26
S'dgosch rednor'
p756
sg28
(lp757
F1.683259917264877
aF1.9163563645524846
aF2.7327779117931641
aF2.9160904371346987
aF3.0991687923760765
aF3.1990628705025301
aF3.3657923033115367
aF15.860899431319922
aF15.994153125433513
aF18.309897504068431
aF18.609530338180775
aF18.726580744418243
aF19.292861468818955
aF19.426238663601907
asS'trials.thisN'
p758
I58
sg40
g41
sg16
g67
sg17
F8.3889999999999993
sg27
(lp759
S'd'
aS'g'
aS'o'
aS's'
aS'c'
aS'h'
aS'space'
p760
aS'r'
aS'e'
aS'd'
aS'n'
aS'o'
aS'r'
aS'return'
p761
asS'trials.thisRepN'
p762
I0
sg42
g43
sg22
Nsg19
g106
sS'trials.thisTrialN'
p763
I58
sg23
Nsg21
Nsg18
Nsa(dp764
g20
Nsg39
g11
sS'trials.thisIndex'
p765
g35
(g60
S'B\x00\x00\x00'
tRp766
sg25
Nsg53
V./img/smoo15_GeorgeClooney4_2.png
p767
sg34
g38
sg24
Nsg52
g35
(g63
S'C\x00\x00\x00\x00\x00\x00\x00'
tRp768
sg32
g33
sg26
S''
sg28
(lp769
F0.26691670473155682
asS'trials.thisN'
p770
I59
sg40
g41
sg16
g67
sg17
F1.9350000000000001
sg27
(lp771
S'return'
p772
asS'trials.thisRepN'
p773
I0
sg42
g43
sg22
F2.0070000000000001
sg19
NsS'trials.thisTrialN'
p774
I59
sg23
Nsg21
g181
sg18
Nsa(dp775
g20
Nsg39
g11
sS'trials.thisIndex'
p776
g35
(g60
S'9\x00\x00\x00'
tRp777
sg25
Nsg53
V./img/smoo15_EmilyDeschanel3_1.png
p778
sg34
g38
sg24
Nsg52
g35
(g63
S':\x00\x00\x00\x00\x00\x00\x00'
tRp779
sg32
g33
sg26
S''
sg28
(lp780
F0.21709460985402984
asS'trials.thisN'
p781
I60
sg40
g41
sg16
g176
sg17
F1.9399999999999999
sg27
(lp782
S'return'
p783
asS'trials.thisRepN'
p784
I0
sg42
g43
sg22
F1.0569999999999999
sg19
NsS'trials.thisTrialN'
p785
I60
sg23
Nsg21
g120
sg18
Nsa(dp786
g20
Nsg39
g11
sS'trials.thisIndex'
p787
g35
(g60
S'!\x00\x00\x00'
tRp788
sg25
Nsg53
V./img/smoo15_EmilyDeschanel5_1.png
p789
sg34
g38
sg24
Nsg52
g35
(g63
S'"\x00\x00\x00\x00\x00\x00\x00'
tRp790
sg32
g33
sg26
S''
sg28
(lp791
F0.30035747830334003
asS'trials.thisN'
p792
I61
sg40
g41
sg16
g176
sg17
F1.2729999999999999
sg27
(lp793
S'return'
p794
asS'trials.thisRepN'
p795
I0
sg42
g43
sg22
F0.58999999999999997
sg19
NsS'trials.thisTrialN'
p796
I61
sg23
Nsg21
g120
sg18
Nsa(dp797
g20
Nsg39
g11
sS'trials.thisIndex'
p798
g35
(g60
S'\x0e\x00\x00\x00'
tRp799
sg25
Nsg53
V./img/smoo15_LisaEdelstein(DrLisaCuddy)1_1.png
p800
sg34
g38
sg24
Nsg52
g35
(g63
S'\x0f\x00\x00\x00\x00\x00\x00\x00'
tRp801
sg32
g33
sg26
S''
sg28
(lp802
F0.2171266879504401
asS'trials.thisN'
p803
I62
sg40
g41
sg16
g67
sg17
F2.274
sg27
(lp804
S'return'
p805
asS'trials.thisRepN'
p806
I0
sg42
g43
sg22
F0.59099999999999997
sg19
NsS'trials.thisTrialN'
p807
I62
sg23
Nsg21
g120
sg18
Nsa(dp808
g20
Nsg39
g11
sS'trials.thisIndex'
p809
g35
(g60
S'\x08\x00\x00\x00'
tRp810
sg25
Nsg53
V./img/smoo15_EmilyDeschanel6_12.png
p811
sg34
g38
sg24
Nsg52
g35
(g63
S'\t\x00\x00\x00\x00\x00\x00\x00'
tRp812
sg32
g33
sg26
S''
sg28
(lp813
F0.3002554699578468
asS'trials.thisN'
p814
I63
sg40
g41
sg16
g176
sg17
F1.1910000000000001
sg27
(lp815
S'return'
p816
asS'trials.thisRepN'
p817
I0
sg42
g43
sg22
F0.54100000000000004
sg19
NsS'trials.thisTrialN'
p818
I63
sg23
Nsg21
g120
sg18
Nsa(dp819
g20
Nsg39
g11
sS'trials.thisIndex'
p820
g35
(g60
S'\x17\x00\x00\x00'
tRp821
sg25
Nsg53
V./img/smoo15_BastianSchweinsteiger1_1.png
p822
sg34
g38
sg24
F0.872
sg52
g35
(g63
S'\x18\x00\x00\x00\x00\x00\x00\x00'
tRp823
sg32
g33
sg26
S''
sg28
(lp824
F0.15135119356273208
asS'trials.thisN'
p825
I64
sg40
g41
sg16
g176
sg17
F2.8900000000000001
sg27
(lp826
S'return'
p827
asS'trials.thisRepN'
p828
I0
sg42
g43
sg22
Nsg19
NsS'trials.thisTrialN'
p829
I64
sg23
g132
sg21
Nsg18
Nsa(dp830
g20
Nsg39
g11
sS'trials.thisIndex'
p831
g35
(g60
S'\x04\x00\x00\x00'
tRp832
sg25
Nsg53
V./img/smoo15_BarackObama1_3.png
p833
sg34
g38
sg24
F0.625
sg52
g35
(g63
S'\x05\x00\x00\x00\x00\x00\x00\x00'
tRp834
sg32
g33
sg26
S'obama'
p835
sg28
(lp836
F0.58341331472001912
aF1.1666729753596883
aF1.4664270646753721
aF1.7495204324641236
aF2.0827345422076178
aF2.6160739489932894
asS'trials.thisN'
p837
I65
sg40
g41
sg16
g67
sg17
F1.4910000000000001
sg27
(lp838
S'o'
aS'b'
aS'a'
aS'm'
aS'a'
aS'return'
p839
asS'trials.thisRepN'
p840
I0
sg42
g43
sg22
Nsg19
NsS'trials.thisTrialN'
p841
I65
sg23
g132
sg21
Nsg18
Nsa(dp842
g20
Nsg39
g11
sS'trials.thisIndex'
p843
g35
(g60
S'\x12\x00\x00\x00'
tRp844
sg25
Nsg53
V./img/smoo15_NicoleKidman7_1.png
p845
sg34
g38
sg24
Nsg52
g35
(g63
S'\x13\x00\x00\x00\x00\x00\x00\x00'
tRp846
sg32
g33
sg26
S''
sg28
(lp847
F0.20021960664416838
asS'trials.thisN'
p848
I66
sg40
g41
sg16
g176
sg17
F1.2569999999999999
sg27
(lp849
S'return'
p850
asS'trials.thisRepN'
p851
I0
sg42
g43
sg22
F6.4390000000000001
sg19
NsS'trials.thisTrialN'
p852
I66
sg23
Nsg21
g181
sg18
Nsa(dp853
g20
Nsg39
g11
sS'trials.thisIndex'
p854
g35
(g60
S'8\x00\x00\x00'
tRp855
sg25
Nsg53
V./img/smoo15_UrsulavonderLeyen5_1.png
p856
sg34
g38
sg24
F0.874
sg52
g35
(g63
S'9\x00\x00\x00\x00\x00\x00\x00'
tRp857
sg32
g33
sg26
S''
sg28
(lp858
F0.083678279792366084
asS'trials.thisN'
p859
I67
sg40
g41
sg16
g176
sg17
F1.3580000000000001
sg27
(lp860
S'return'
p861
asS'trials.thisRepN'
p862
I0
sg42
g43
sg22
Nsg19
NsS'trials.thisTrialN'
p863
I67
sg23
g132
sg21
Nsg18
Nsa(dp864
g20
Nsg39
g11
sS'trials.thisIndex'
p865
g35
(g60
S'\x13\x00\x00\x00'
tRp866
sg25
Nsg53
V./img/smoo15_NicoleKidman5_1.png
p867
sg34
g38
sg24
F0.77400000000000002
sg52
g35
(g63
S'\x14\x00\x00\x00\x00\x00\x00\x00'
tRp868
sg32
g33
sg26
S''
sg28
(lp869
F0.066624601589865051
asS'trials.thisN'
p870
I68
sg40
g41
sg16
g176
sg17
F1.008
sg27
(lp871
S'return'
p872
asS'trials.thisRepN'
p873
I0
sg42
g43
sg22
Nsg19
NsS'trials.thisTrialN'
p874
I68
sg23
g321
sg21
Nsg18
Nsa(dp875
g20
F1.1559999999999999
sg39
g11
sS'trials.thisIndex'
p876
g35
(g60
S'\r\x00\x00\x00'
tRp877
sg25
Nsg53
V./img/smoo15_BritneySpears7_1.png
p878
sg34
g38
sg24
Nsg52
g35
(g63
S'\x0e\x00\x00\x00\x00\x00\x00\x00'
tRp879
sg32
g33
sg26
S'britney'
p880
sg28
(lp881
F0.71694672982994234
aF1.1666299907101347
aF1.4665136755338608
aF8.7304253042293567
aF8.9804397393727413
aF9.4635509425825148
aF9.9965907399528078
aF10.562998814393723
asS'trials.thisN'
p882
I69
sg40
g41
sg16
g67
sg17
F1.675
sg27
(lp883
S'b'
aS'r'
aS'i'
aS't'
aS'n'
aS'e'
aS'y'
aS'return'
p884
asS'trials.thisRepN'
p885
I0
sg42
g43
sg22
Nsg19
g71
sS'trials.thisTrialN'
p886
I69
sg23
Nsg21
Nsg18
Nsa(dp887
g20
Nsg39
g11
sS'trials.thisIndex'
p888
g35
(g60
S'\t\x00\x00\x00'
tRp889
sg25
Nsg53
V./img/smoo15_KatjaBurkard5_3.png
p890
sg34
g38
sg24
F5.4379999999999997
sg52
g35
(g63
S'\n\x00\x00\x00\x00\x00\x00\x00'
tRp891
sg32
g33
sg26
S''
sg28
(lp892
F0.083524304933234816
asS'trials.thisN'
p893
I70
sg40
g41
sg16
g176
sg17
F1.1839999999999999
sg27
(lp894
S'return'
p895
asS'trials.thisRepN'
p896
I0
sg42
g43
sg22
Nsg19
NsS'trials.thisTrialN'
p897
I70
sg23
g132
sg21
Nsg18
Nsa(dp898
g20
Nsg39
g11
sS'trials.thisIndex'
p899
g35
(g60
S'C\x00\x00\x00'
tRp900
sg25
Nsg53
V./img/smoo15_AlysonHannigan(Lily)8_3.png
p901
sg34
g38
sg24
Nsg52
g35
(g63
S'D\x00\x00\x00\x00\x00\x00\x00'
tRp902
sg32
g33
sg26
S'stirling'
p903
sg28
(lp904
F1.3327730359214911
aF1.7992748425604077
aF2.0825366203534941
aF2.4655009700400115
aF2.9320518561653444
aF3.1154182727095758
aF3.4985494284956076
aF3.9320056637079688
aF4.231550283057004
asS'trials.thisN'
p905
I71
sg40
g41
sg16
g67
sg17
F2.0569999999999999
sg27
(lp906
S's'
aS't'
aS'i'
aS'r'
aS'l'
aS'i'
aS'n'
aS'g'
aS'return'
p907
asS'trials.thisRepN'
p908
I0
sg42
g43
sg22
F1.024
sg19
NsS'trials.thisTrialN'
p909
I71
sg23
Nsg21
g120
sg18
Nsa(dp910
g20
Nsg39
g11
sS'trials.thisIndex'
p911
g35
(g60
S'+\x00\x00\x00'
tRp912
sg25
NsS'pic'
p913
V./img/edges5_EmilyDeschanel5_1.png
p914
sg34
g38
sg24
F5.1020000000000003
sS'num'
p915
g35
(g63
S',\x00\x00\x00\x00\x00\x00\x00'
tRp916
sg32
g33
sg26
S''
sg28
(lp917
F0.16706432813225547
asS'trials.thisN'
p918
I0
sg40
g41
sg16
g176
sg17
F2.2090000000000001
sg27
(lp919
S'return'
p920
asS'trials.thisRepN'
p921
I0
sg42
g43
sg22
Nsg19
NsS'trials.thisTrialN'
p922
I0
sg23
g321
sg21
Nsg18
Nsa(dp923
g20
F0.40600000000000003
sg39
g11
sS'trials.thisIndex'
p924
g35
(g60
S'\n\x00\x00\x00'
tRp925
sg25
Nsg913
V./img/edges5_RobertSeanLeonard(Wilson)1_1.png
p926
sg34
g38
sg24
Nsg915
g35
(g63
S'\x0b\x00\x00\x00\x00\x00\x00\x00'
tRp927
sg32
g33
sg26
S''
sg28
(lp928
F0.11713124303787481
asS'trials.thisN'
p929
I1
sg40
g41
sg16
g67
sg17
F2.9039999999999999
sg27
(lp930
S'return'
p931
asS'trials.thisRepN'
p932
I0
sg42
g43
sg22
Nsg19
g71
sS'trials.thisTrialN'
p933
I1
sg23
Nsg21
Nsg18
Nsa(dp934
g20
Nsg39
g11
sS'trials.thisIndex'
p935
g35
(g60
S'\x1a\x00\x00\x00'
tRp936
sg25
Nsg913
V./img/edges5_OmarEpps(DrEricForeman)2_2.png
p937
sg34
g38
sg24
Nsg915
g35
(g63
S'\x1b\x00\x00\x00\x00\x00\x00\x00'
tRp938
sg32
g33
sg26
S''
sg28
(lp939
F0.15035324399468664
asS'trials.thisN'
p940
I2
sg40
g41
sg16
g67
sg17
F1.1899999999999999
sg27
(lp941
S'return'
p942
asS'trials.thisRepN'
p943
I0
sg42
g43
sg22
F0.57299999999999995
sg19
NsS'trials.thisTrialN'
p944
I2
sg23
Nsg21
g120
sg18
Nsa(dp945
g20
Nsg39
g11
sS'trials.thisIndex'
p946
g35
(g60
S'#\x00\x00\x00'
tRp947
sg25
Nsg913
V./img/edges5_AngelaMerkel1_1.png
p948
sg34
g38
sg24
F0.60699999999999998
sg915
g35
(g63
S'$\x00\x00\x00\x00\x00\x00\x00'
tRp949
sg32
g33
sg26
S'merkel'
p950
sg28
(lp951
F0.85001822035883379
aF1.2332725560336257
aF1.3832248238268221
aF1.6664769781909854
aF1.9660004259967536
aF2.265811293542356
aF2.549410853687732
asS'trials.thisN'
p952
I3
sg40
g41
sg16
g67
sg17
F1.2070000000000001
sg27
(lp953
S'm'
aS'e'
aS'r'
aS'k'
aS'e'
aS'l'
aS'return'
p954
asS'trials.thisRepN'
p955
I0
sg42
g43
sg22
Nsg19
NsS'trials.thisTrialN'
p956
I3
sg23
g132
sg21
Nsg18
Nsa(dp957
g20
F0.95699999999999996
sg39
g11
sS'trials.thisIndex'
p958
g35
(g60
S'9\x00\x00\x00'
tRp959
sg25
Nsg913
V./img/edges5_HughLaurie(DrHouse)5_3.png
p960
sg34
g38
sg24
Nsg915
g35
(g63
S':\x00\x00\x00\x00\x00\x00\x00'
tRp961
sg32
g33
sg26
S'chyu lori'
p962
sg28
(lp963
F0.66674130170395074
aF2.2158442056697822
aF3.265689396777816
aF3.5156351847945189
aF3.965338334093758
aF4.2654465655905369
aF4.8319656302446674
aF5.1982144048615737
aF5.348268360219663
aF5.7482308930029831
aF6.0314724615964224
aF6.2977245081783622
asS'trials.thisN'
p964
I4
sg40
g41
sg16
g67
sg17
F1.7889999999999999
sg27
(lp965
S's'
aS'backspace'
p966
aS'c'
aS'h'
aS'y'
aS'u'
aS'space'
p967
aS'l'
aS'o'
aS'r'
aS'i'
aS'return'
p968
asS'trials.thisRepN'
p969
I0
sg42
g43
sg22
Nsg19
g71
sS'trials.thisTrialN'
p970
I4
sg23
Nsg21
Nsg18
Nsa(dp971
g20
Nsg39
g11
sS'trials.thisIndex'
p972
g35
(g60
S'\x1f\x00\x00\x00'
tRp973
sg25
Nsg913
V./img/edges5_Ice-T(OdafinFinTutuola)7_1.png
p974
sg34
g38
sg24
F2.1400000000000001
sg915
g35
(g63
S' \x00\x00\x00\x00\x00\x00\x00'
tRp975
sg32
g33
sg26
S''
sg28
(lp976
F0.21718250383491977
asS'trials.thisN'
p977
I5
sg40
g41
sg16
g176
sg17
F1.3169999999999999
sg27
(lp978
S'return'
p979
asS'trials.thisRepN'
p980
I0
sg42
g43
sg22
Nsg19
NsS'trials.thisTrialN'
p981
I5
sg23
g132
sg21
Nsg18
Nsa(dp982
g20
F0.41599999999999998
sg39
g11
sS'trials.thisIndex'
p983
g35
(g60
S'-\x00\x00\x00'
tRp984
sg25
Nsg913
V./img/edges5_TomCruise5_1.png
p985
sg34
g38
sg24
Nsg915
g35
(g63
S'.\x00\x00\x00\x00\x00\x00\x00'
tRp986
sg32
g33
sg26
S''
sg28
(lp987
F0.21699837556479906
asS'trials.thisN'
p988
I6
sg40
g41
sg16
g67
sg17
F4.3220000000000001
sg27
(lp989
S'return'
p990
asS'trials.thisRepN'
p991
I0
sg42
g43
sg22
Nsg19
g106
sS'trials.thisTrialN'
p992
I6
sg23
Nsg21
Nsg18
Nsa(dp993
g20
Nsg39
g11
sS'trials.thisIndex'
p994
g35
(g60
S'\x0f\x00\x00\x00'
tRp995
sg25
Nsg913
V./img/edges5_BritneySpears7_1.png
p996
sg34
g38
sg24
Nsg915
g35
(g63
S'\x10\x00\x00\x00\x00\x00\x00\x00'
tRp997
sg32
g33
sg26
S'britney'
p998
sg28
(lp999
F3.3159349225243204
aF3.8655497929030389
aF4.1154477845575457
aF4.3819869301005383
aF4.7984302262902929
aF5.3650095977664023
aF6.297858915400866
aF6.6642154724195279
asS'trials.thisN'
p1000
I7
sg40
g41
sg16
g67
sg17
F3.3559999999999999
sg27
(lp1001
S'b'
aS'r'
aS'i'
aS't'
aS'n'
aS'e'
aS'y'
aS'return'
p1002
asS'trials.thisRepN'
p1003
I0
sg42
g43
sg22
F2.355
sg19
NsS'trials.thisTrialN'
p1004
I7
sg23
Nsg21
g120
sg18
Nsa(dp1005
g20
Nsg39
g11
sS'trials.thisIndex'
p1006
g35
(g60
S'.\x00\x00\x00'
tRp1007
sg25
Nsg913
V./img/edges5_UrsulavonderLeyen5_1.png
p1008
sg34
g38
sg24
F0.88900000000000001
sg915
g35
(g63
S'/\x00\x00\x00\x00\x00\x00\x00'
tRp1009
sg32
g33
sg26
S''
sg28
(lp1010
F0.083817819509931724
asS'trials.thisN'
p1011
I8
sg40
g41
sg16
g176
sg17
F1.6830000000000001
sg27
(lp1012
S'return'
p1013
asS'trials.thisRepN'
p1014
I0
sg42
g43
sg22
Nsg19
NsS'trials.thisTrialN'
p1015
I8
sg23
g321
sg21
Nsg18
Nsa(dp1016
g20
Nsg39
g11
sS'trials.thisIndex'
p1017
g35
(g60
S'/\x00\x00\x00'
tRp1018
sg25
Nsg913
V./img/edges5_GeorgeClooney3_1.png
p1019
sg34
g38
sg24
Nsg915
g35
(g63
S'0\x00\x00\x00\x00\x00\x00\x00'
tRp1020
sg32
g33
sg26
S''
sg28
(lp1021
F0.28364222401251027
asS'trials.thisN'
p1022
I9
sg40
g41
sg16
g67
sg17
F3.2559999999999998
sg27
(lp1023
S'return'
p1024
asS'trials.thisRepN'
p1025
I0
sg42
g43
sg22
F0.67400000000000004
sg19
NsS'trials.thisTrialN'
p1026
I9
sg23
Nsg21
g181
sg18
Nsa(dp1027
g20
Nsg39
g11
sS'trials.thisIndex'
p1028
g35
(g60
S'!\x00\x00\x00'
tRp1029
sg25
Nsg913
V./img/edges5_KatjaBurkard1_1.png
p1030
sg34
g38
sg24
F0.64000000000000001
sg915
g35
(g63
S'"\x00\x00\x00\x00\x00\x00\x00'
tRp1031
sg32
g33
sg26
S''
sg28
(lp1032
F0.067199761851952644
asS'trials.thisN'
p1033
I10
sg40
g41
sg16
g176
sg17
F1.139
sg27
(lp1034
S'return'
p1035
asS'trials.thisRepN'
p1036
I0
sg42
g43
sg22
Nsg19
NsS'trials.thisTrialN'
p1037
I10
sg23
g132
sg21
Nsg18
Nsa(dp1038
g20
Nsg39
g11
sS'trials.thisIndex'
p1039
g35
(g60
S'\x00\x00\x00\x00'
tRp1040
sg25
Nsg913
V./img/edges5_BastianSchweinsteiger6_2.png
p1041
sg34
g38
sg24
F0.85599999999999998
sg915
g35
(g63
S'\x01\x00\x00\x00\x00\x00\x00\x00'
tRp1042
sg32
g33
sg26
S''
sg28
(lp1043
F0.13386061169148888
asS'trials.thisN'
p1044
I11
sg40
g41
sg16
g176
sg17
F1.472
sg27
(lp1045
S'return'
p1046
asS'trials.thisRepN'
p1047
I0
sg42
g43
sg22
Nsg19
NsS'trials.thisTrialN'
p1048
I11
sg23
g321
sg21
Nsg18
Nsa(dp1049
g20
F1.1060000000000001
sg39
g11
sS'trials.thisIndex'
p1050
g35
(g60
S'\x07\x00\x00\x00'
tRp1051
sg25
Nsg913
V./img/edges5_LeonardoDiCaprio3_1.png
p1052
sg34
g38
sg24
Nsg915
g35
(g63
S'\x08\x00\x00\x00\x00\x00\x00\x00'
tRp1053
sg32
g33
sg26
S'leonardo di kaprio'
p1054
sg28
(lp1055
F0.55016436816549685
aF0.98307142637167999
aF1.2165492822205124
aF1.6996598438690853
aF2.1162407550928037
aF2.3827609745585505
aF2.6160162084215699
aF2.9825062103191158
aF3.3490270071906707
aF4.8316669831710897
aF5.1150018990229
aF5.4146424318787467
aF5.5981240087876358
aF5.9481249069740443
aF6.3311954351593158
aF7.464077985701806
aF7.6140507834752498
aF8.2804065064647148
aF9.6132950235332828
aF10.063047252318938
aF10.362974242572818
aF10.529585948768727
aF10.796133113834003
asS'trials.thisN'
p1056
I12
sg40
g41
sg16
g67
sg17
F3.5379999999999998
sg27
(lp1057
S'l'
aS'e'
aS'o'
aS'n'
aS'a'
aS'r'
aS'd'
aS'o'
aS'space'
p1058
aS'd'
aS'i'
aS'space'
p1059
aS'k'
aS's'
aS'p'
aS'backspace'
p1060
aS'backspace'
p1061
aS'a'
aS'p'
aS'r'
aS'i'
aS'o'
aS'return'
p1062
asS'trials.thisRepN'
p1063
I0
sg42
g43
sg22
Nsg19
g71
sS'trials.thisTrialN'
p1064
I12
sg23
Nsg21
Nsg18
Nsa(dp1065
g20
Nsg39
g11
sS'trials.thisIndex'
p1066
g35
(g60
S'\r\x00\x00\x00'
tRp1067
sg25
Nsg913
V./img/edges5_AngelaMerkel4_1.png
p1068
sg34
g38
sg24
F0.63900000000000001
sg915
g35
(g63
S'\x0e\x00\x00\x00\x00\x00\x00\x00'
tRp1069
sg32
g33
sg26
S'merkel'
p1070
sg28
(lp1071
F0.55018489814574423
aF0.98334601487476903
aF1.1166789418857661
aF1.4334758028508077
aF2.6160020940587856
aF3.4323957333563158
aF3.7489401397069742
aF3.9988012415506091
asS'trials.thisN'
p1072
I13
sg40
g41
sg16
g67
sg17
F2.5499999999999998
sg27
(lp1073
S'm'
aS'e'
aS'r'
aS'k'
aS'l'
aS'backspace'
p1074
aS'e'
aS'l'
aS'return'
p1075
asS'trials.thisRepN'
p1076
I0
sg42
g43
sg22
Nsg19
NsS'trials.thisTrialN'
p1077
I13
sg23
g132
sg21
Nsg18
Nsa(dp1078
g20
F1.4399999999999999
sg39
g11
sS'trials.thisIndex'
p1079
g35
(g60
S'\x11\x00\x00\x00'
tRp1080
sg25
Nsg913
V./img/edges5_JoshRadnor(Ted)6_2.png
p1081
sg34
g38
sg24
Nsg915
g35
(g63
S'\x12\x00\x00\x00\x00\x00\x00\x00'
tRp1082
sg32
g33
sg26
S'comedien'
p1083
sg28
(lp1084
F0.58346752670149726
aF0.9165154719066777
aF1.2167196169102681
aF1.7332067959378037
aF1.8997655732746352
aF2.1495086277245719
aF2.4992076710277615
aF2.8327053511402482
aF3.2158740382983524
asS'trials.thisN'
p1085
I14
sg40
g41
sg16
g67
sg17
F1.806
sg27
(lp1086
S'c'
aS'o'
aS'm'
aS'e'
aS'd'
aS'i'
aS'e'
aS'n'
aS'return'
p1087
asS'trials.thisRepN'
p1088
I0
sg42
g43
sg22
Nsg19
g71
sS'trials.thisTrialN'
p1089
I14
sg23
Nsg21
Nsg18
Nsa(dp1090
g20
Nsg39
g11
sS'trials.thisIndex'
p1091
g35
(g60
S'\x16\x00\x00\x00'
tRp1092
sg25
Nsg913
V./img/edges5_UrsulavonderLeyen1_1.png
p1093
sg34
g38
sg24
F0.57299999999999995
sg915
g35
(g63
S'\x17\x00\x00\x00\x00\x00\x00\x00'
tRp1094
sg32
g33
sg26
S''
sg28
(lp1095
F0.16718430020955566
asS'trials.thisN'
p1096
I15
sg40
g41
sg16
g176
sg17
F1.04
sg27
(lp1097
S'return'
p1098
asS'trials.thisRepN'
p1099
I0
sg42
g43
sg22
Nsg19
NsS'trials.thisTrialN'
p1100
I15
sg23
g132
sg21
Nsg18
Nsa(dp1101
g20
Nsg39
g11
sS'trials.thisIndex'
p1102
g35
(g60
S'\x18\x00\x00\x00'
tRp1103
sg25
Nsg913
V./img/edges5_JoachimLoew8_1.png
p1104
sg34
g38
sg24
F0.623
sg915
g35
(g63
S'\x19\x00\x00\x00\x00\x00\x00\x00'
tRp1105
sg32
g33
sg26
S''
sg28
(lp1106
F0.10030756478408875
asS'trials.thisN'
p1107
I16
sg40
g41
sg16
g176
sg17
F1.7889999999999999
sg27
(lp1108
S'return'
p1109
asS'trials.thisRepN'
p1110
I0
sg42
g43
sg22
Nsg19
NsS'trials.thisTrialN'
p1111
I16
sg23
g132
sg21
Nsg18
Nsa(dp1112
g20
Nsg39
g11
sS'trials.thisIndex'
p1113
g35
(g60
S' \x00\x00\x00'
tRp1114
sg25
Nsg913
V./img/edges5_BarackObama2_1.png
p1115
sg34
g38
sg24
F0.78900000000000003
sg915
g35
(g63
S'!\x00\x00\x00\x00\x00\x00\x00'
tRp1116
sg32
g33
sg26
S'obama'
p1117
sg28
(lp1118
F0.40035998039456899
aF1.0499680502161937
aF1.4831172980484553
aF1.7827953622781934
aF2.0996692106746195
aF2.4495459666286479
asS'trials.thisN'
p1119
I17
sg40
g41
sg16
g67
sg17
F1.006
sg27
(lp1120
S'o'
aS'b'
aS'a'
aS'm'
aS'a'
aS'return'
p1121
asS'trials.thisRepN'
p1122
I0
sg42
g43
sg22
Nsg19
NsS'trials.thisTrialN'
p1123
I17
sg23
g132
sg21
Nsg18
Nsa(dp1124
g20
Nsg39
g11
sS'trials.thisIndex'
p1125
g35
(g60
S'*\x00\x00\x00'
tRp1126
sg25
Nsg913
V./img/edges5_BarackObama1_3.png
p1127
sg34
g38
sg24
F0.58899999999999997
sg915
g35
(g63
S'+\x00\x00\x00\x00\x00\x00\x00'
tRp1128
sg32
g33
sg26
S'obama'
p1129
sg28
(lp1130
F0.76653690007515252
aF2.1829773092376854
aF2.766114431549795
aF3.0826713483584172
aF3.465687022999191
aF3.8155727608209418
asS'trials.thisN'
p1131
I18
sg40
g41
sg16
g67
sg17
F1.089
sg27
(lp1132
S'o'
aS'b'
aS'a'
aS'm'
aS'a'
aS'return'
p1133
asS'trials.thisRepN'
p1134
I0
sg42
g43
sg22
Nsg19
NsS'trials.thisTrialN'
p1135
I18
sg23
g132
sg21
Nsg18
Nsa(dp1136
g20
Nsg39
g11
sS'trials.thisIndex'
p1137
g35
(g60
S'1\x00\x00\x00'
tRp1138
sg25
Nsg913
V./img/edges5_WillSmith5_1.png
p1139
sg34
g38
sg24
Nsg915
g35
(g63
S'2\x00\x00\x00\x00\x00\x00\x00'
tRp1140
sg32
g33
sg26
S''
sg28
(lp1141
F0.11699266566392907
asS'trials.thisN'
p1142
I19
sg40
g41
sg16
g67
sg17
F1.1899999999999999
sg27
(lp1143
S'return'
p1144
asS'trials.thisRepN'
p1145
I0
sg42
g43
sg22
F0.52300000000000002
sg19
NsS'trials.thisTrialN'
p1146
I19
sg23
Nsg21
g120
sg18
Nsa(dp1147
g20
Nsg39
g11
sS'trials.thisIndex'
p1148
g35
(g60
S'8\x00\x00\x00'
tRp1149
sg25
Nsg913
V./img/edges5_BritneySpears5_1.png
p1150
sg34
g38
sg24
Nsg915
g35
(g63
S'9\x00\x00\x00\x00\x00\x00\x00'
tRp1151
sg32
g33
sg26
S'britney'
p1152
sg28
(lp1153
F0.60011862479950651
aF1.0498856095109659
aF1.3830143915183726
aF2.0330484584555961
aF2.7493135287459154
aF3.648932184340083
aF3.8988253642801283
aF4.298575540067759
aF5.2315573402393056
aF5.7980991803415236
asS'trials.thisN'
p1154
I20
sg40
g41
sg16
g67
sg17
F2.3570000000000002
sg27
(lp1155
S'b'
aS'r'
aS'o'
aS'backspace'
p1156
aS'i'
aS't'
aS'n'
aS'e'
aS'y'
aS'return'
p1157
asS'trials.thisRepN'
p1158
I0
sg42
g43
sg22
F1.1399999999999999
sg19
NsS'trials.thisTrialN'
p1159
I20
sg23
Nsg21
g120
sg18
Nsa(dp1160
g20
F0.90200000000000002
sg39
g11
sS'trials.thisIndex'
p1161
g35
(g60
S'7\x00\x00\x00'
tRp1162
sg25
Nsg913
V./img/edges5_NeilPatrickHarris(Barney)1_1.png
p1163
sg34
g38
sg24
Nsg915
g35
(g63
S'8\x00\x00\x00\x00\x00\x00\x00'
tRp1164
sg32
g33
sg26
S'nil patrik harris'
p1165
sg28
(lp1166
F2.4828850526337192
aF2.8161257871961425
aF2.9826078978840087
aF3.3326110415364383
aF3.6322932759176183
aF4.131805368077039
aF4.3986004968246561
aF4.5819098143565498
aF4.8319040403002873
aF5.015233567031828
aF5.3648376591718261
aF5.7314652761015168
aF6.8143608503505675
aF7.2641891042258067
aF7.3809084645108669
aF8.1472625194382999
aF8.5303923921019305
aF8.8303023809639853
asS'trials.thisN'
p1167
I21
sg40
g41
sg16
g67
sg17
F7.7809999999999997
sg27
(lp1168
S'n'
aS'i'
aS'l'
aS'space'
p1169
aS'p'
aS'a'
aS't'
aS'r'
aS'i'
aS'k'
aS'space'
p1170
aS'h'
aS'a'
aS'r'
aS'r'
aS'i'
aS's'
aS'return'
p1171
asS'trials.thisRepN'
p1172
I0
sg42
g43
sg22
Nsg19
g71
sS'trials.thisTrialN'
p1173
I21
sg23
Nsg21
Nsg18
Nsa(dp1174
g20
Nsg39
g11
sS'trials.thisIndex'
p1175
g35
(g60
S'\x15\x00\x00\x00'
tRp1176
sg25
Nsg913
V./img/edges5_JasonSegel(Marshall)6_1.png
p1177
sg34
g38
sg24
F1.456
sg915
g35
(g63
S'\x16\x00\x00\x00\x00\x00\x00\x00'
tRp1178
sg32
g33
sg26
S''
sg28
(lp1179
F0.13375379162971512
asS'trials.thisN'
p1180
I22
sg40
g41
sg16
g176
sg17
F1.3500000000000001
sg27
(lp1181
S'return'
p1182
asS'trials.thisRepN'
p1183
I0
sg42
g43
sg22
Nsg19
NsS'trials.thisTrialN'
p1184
I22
sg23
g132
sg21
Nsg18
Nsa(dp1185
g20
Nsg39
g11
sS'trials.thisIndex'
p1186
g35
(g60
S'\x01\x00\x00\x00'
tRp1187
sg25
Nsg913
V./img/edges5_OmarEpps(DrEricForeman)1_5.png
p1188
sg34
g38
sg24
Nsg915
g35
(g63
S'\x02\x00\x00\x00\x00\x00\x00\x00'
tRp1189
sg32
g33
sg26
S''
sg28
(lp1190
F0.10025720217527123
asS'trials.thisN'
p1191
I23
sg40
g41
sg16
g67
sg17
F1.589
sg27
(lp1192
S'return'
p1193
asS'trials.thisRepN'
p1194
I0
sg42
g43
sg22
F0.50600000000000001
sg19
NsS'trials.thisTrialN'
p1195
I23
sg23
Nsg21
g120
sg18
Nsa(dp1196
g20
F0.80500000000000005
sg39
g11
sS'trials.thisIndex'
p1197
g35
(g60
S'\x03\x00\x00\x00'
tRp1198
sg25
Nsg913
V./img/edges5_LeonardoDiCaprio1_1.png
p1199
sg34
g38
sg24
Nsg915
g35
(g63
S'\x04\x00\x00\x00\x00\x00\x00\x00'
tRp1200
sg32
g33
sg26
S'leonardo'
p1201
sg28
(lp1202
F0.98329148211087158
aF1.3500823765498353
aF1.7665176532173064
aF2.2330492924847931
aF2.6325720345721493
aF3.1326461349744932
aF3.3493044827209815
aF3.6990115455482737
aF4.2155336896994413
asS'trials.thisN'
p1203
I24
sg40
g41
sg16
g67
sg17
F1.04
sg27
(lp1204
S'l'
aS'e'
aS'o'
aS'n'
aS'a'
aS'r'
aS'd'
aS'o'
aS'return'
p1205
asS'trials.thisRepN'
p1206
I0
sg42
g43
sg22
Nsg19
g71
sS'trials.thisTrialN'
p1207
I24
sg23
Nsg21
Nsg18
Nsa(dp1208
g20
F0.624
sg39
g11
sS'trials.thisIndex'
p1209
g35
(g60
S'F\x00\x00\x00'
tRp1210
sg25
Nsg913
V./img/edges5_HughLaurie(DrHouse)4_1.png
p1211
sg34
g38
sg24
Nsg915
g35
(g63
S'G\x00\x00\x00\x00\x00\x00\x00'
tRp1212
sg32
g33
sg26
S'chyu lori'
p1213
sg28
(lp1214
F0.93339785307762213
aF1.1833888712098997
aF1.5831894096081669
aF1.8996917936528916
aF2.1663242864542553
aF2.4495604017720325
aF2.5661562613877322
aF2.9491860503912903
aF3.7989739500189899
aF4.081893133747144
asS'trials.thisN'
p1215
I25
sg40
g41
sg16
g67
sg17
F2.0030000000000001
sg27
(lp1216
S'c'
aS'h'
aS'y'
aS'u'
aS'space'
p1217
aS'l'
aS'o'
aS'r'
aS'i'
aS'return'
p1218
asS'trials.thisRepN'
p1219
I0
sg42
g43
sg22
Nsg19
g71
sS'trials.thisTrialN'
p1220
I25
sg23
Nsg21
Nsg18
Nsa(dp1221
g20
F1.5649999999999999
sg39
g11
sS'trials.thisIndex'
p1222
g35
(g60
S'\x13\x00\x00\x00'
tRp1223
sg25
Nsg913
V./img/edges5_JoshRadnor(Ted)1_2.png
p1224
sg34
g38
sg24
Nsg915
g35
(g63
S'\x14\x00\x00\x00\x00\x00\x00\x00'
tRp1225
sg32
g33
sg26
S'ted mosbi'
p1226
sg28
(lp1227
F0.36698304223682499
aF0.80015057458331285
aF1.0166340967080032
aF2.0163239015182626
aF2.2659598151276441
aF2.5161339991900604
aF3.1821259565695073
aF3.515079912953297
aF3.8487155288785289
aF4.0986882624965801
asS'trials.thisN'
p1228
I26
sg40
g41
sg16
g67
sg17
F7.4139999999999997
sg27
(lp1229
S't'
aS'e'
aS'd'
aS'space'
p1230
aS'm'
aS'o'
aS's'
aS'b'
aS'i'
aS'return'
p1231
asS'trials.thisRepN'
p1232
I0
sg42
g43
sg22
Nsg19
g106
sS'trials.thisTrialN'
p1233
I26
sg23
Nsg21
Nsg18
Nsa(dp1234
g20
Nsg39
g11
sS'trials.thisIndex'
p1235
g35
(g60
S'?\x00\x00\x00'
tRp1236
sg25
Nsg913
V./img/edges5_EmilyDeschanel3_1.png
p1237
sg34
g38
sg24
Nsg915
g35
(g63
S'@\x00\x00\x00\x00\x00\x00\x00'
tRp1238
sg32
g33
sg26
S''
sg28
(lp1239
F0.23352148205958656
asS'trials.thisN'
p1240
I27
sg40
g41
sg16
g176
sg17
F1.294
sg27
(lp1241
S'return'
p1242
asS'trials.thisRepN'
p1243
I0
sg42
g43
sg22
F3.2389999999999999
sg19
NsS'trials.thisTrialN'
p1244
I27
sg23
Nsg21
g120
sg18
Nsa(dp1245
g20
F1.0720000000000001
sg39
g11
sS'trials.thisIndex'
p1246
g35
(g60
S'\x12\x00\x00\x00'
tRp1247
sg25
Nsg913
V./img/edges5_HughLaurie(DrHouse)2_1.png
p1248
sg34
g38
sg24
Nsg915
g35
(g63
S'\x13\x00\x00\x00\x00\x00\x00\x00'
tRp1249
sg32
g33
sg26
S'chyu lori'
p1250
sg28
(lp1251
F2.8824966510474042
aF3.2156376227321743
aF3.6657334079263819
aF3.9989010044300812
aF4.2333726396936981
aF4.5652673773474817
aF5.8146944625514152
aF6.4144605490746471
aF6.6145281055451051
aF6.8810711004589393
asS'trials.thisN'
p1252
I28
sg40
g41
sg16
g67
sg17
F0.97299999999999998
sg27
(lp1253
S'c'
aS'h'
aS'y'
aS'u'
aS'space'
p1254
aS'l'
aS'o'
aS'r'
aS'i'
aS'return'
p1255
asS'trials.thisRepN'
p1256
I0
sg42
g43
sg22
Nsg19
g71
sS'trials.thisTrialN'
p1257
I28
sg23
Nsg21
Nsg18
Nsa(dp1258
g20
F2.2160000000000002
sg39
g11
sS'trials.thisIndex'
p1259
g35
(g60
S'\x17\x00\x00\x00'
tRp1260
sg25
Nsg913
V./img/edges5_JasonSegel(Marshall)7_1.png
p1261
sg34
g38
sg24
Nsg915
g35
(g63
S'\x18\x00\x00\x00\x00\x00\x00\x00'
tRp1262
sg32
g33
sg26
S'marshal erikson'
p1263
sg28
(lp1264
F2.2827889466570923
aF2.7493645329177525
aF2.9659725180536043
aF4.3986021007294767
aF4.6484545414878085
aF4.9652292685677821
aF5.2647341110769048
aF8.7970017886746064
aF9.6964998306266352
aF9.8300178482531919
aF10.146364011969126
aF11.012800443448214
aF11.512631391880859
aF11.845736756878978
aF12.178887031210252
aF13.128471812335192
asS'trials.thisN'
p1265
I29
sg40
g41
sg16
g67
sg17
F8.6479999999999997
sg27
(lp1266
S'm'
aS'a'
aS'r'
aS's'
aS'h'
aS'a'
aS'l'
aS'space'
p1267
aS'e'
aS'r'
aS'i'
aS'k'
aS's'
aS'o'
aS'n'
aS'return'
p1268
asS'trials.thisRepN'
p1269
I0
sg42
g43
sg22
Nsg19
g71
sS'trials.thisTrialN'
p1270
I29
sg23
Nsg21
Nsg18
Nsa(dp1271
g20
Nsg39
g11
sS'trials.thisIndex'
p1272
g35
(g60
S'4\x00\x00\x00'
tRp1273
sg25
Nsg913
V./img/edges5_KatjaBurkard4_1.png
p1274
sg34
g38
sg24
F0.872
sg915
g35
(g63
S'5\x00\x00\x00\x00\x00\x00\x00'
tRp1275
sg32
g33
sg26
S''
sg28
(lp1276
F0.13372812915440591
asS'trials.thisN'
p1277
I30
sg40
g41
sg16
g176
sg17
F1.3340000000000001
sg27
(lp1278
S'return'
p1279
asS'trials.thisRepN'
p1280
I0
sg42
g43
sg22
Nsg19
NsS'trials.thisTrialN'
p1281
I30
sg23
g132
sg21
Nsg18
Nsa(dp1282
g20
F0.73999999999999999
sg39
g11
sS'trials.thisIndex'
p1283
g35
(g60
S'\x08\x00\x00\x00'
tRp1284
sg25
Nsg913
V./img/edges5_RobertSeanLeonard(Wilson)8_1.png
p1285
sg34
g38
sg24
Nsg915
g35
(g63
S'\t\x00\x00\x00\x00\x00\x00\x00'
tRp1286
sg32
g33
sg26
S''
sg28
(lp1287
F0.18343762991571566
asS'trials.thisN'
p1288
I31
sg40
g41
sg16
g67
sg17
F1.474
sg27
(lp1289
S'return'
p1290
asS'trials.thisRepN'
p1291
I0
sg42
g43
sg22
Nsg19
g106
sS'trials.thisTrialN'
p1292
I31
sg23
Nsg21
Nsg18
Nsa(dp1293
g20
Nsg39
g11
sS'trials.thisIndex'
p1294
g35
(g60
S'\x1d\x00\x00\x00'
tRp1295
sg25
Nsg913
V./img/edges5_MariskaHargitay(Liv)8_8.png
p1296
sg34
g38
sg24
F0.72199999999999998
sg915
g35
(g63
S'\x1e\x00\x00\x00\x00\x00\x00\x00'
tRp1297
sg32
g33
sg26
S''
sg28
(lp1298
F0.20053717979681096
asS'trials.thisN'
p1299
I32
sg40
g41
sg16
g176
sg17
F1.056
sg27
(lp1300
S'return'
p1301
asS'trials.thisRepN'
p1302
I0
sg42
g43
sg22
Nsg19
NsS'trials.thisTrialN'
p1303
I32
sg23
g321
sg21
Nsg18
Nsa(dp1304
g20
Nsg39
g11
sS'trials.thisIndex'
p1305
g35
(g60
S')\x00\x00\x00'
tRp1306
sg25
Nsg913
V./img/edges5_JoachimLoew4_1.png
p1307
sg34
g38
sg24
F0.52300000000000002
sg915
g35
(g63
S'*\x00\x00\x00\x00\x00\x00\x00'
tRp1308
sg32
g33
sg26
S''
sg28
(lp1309
F0.13360879863648734
asS'trials.thisN'
p1310
I33
sg40
g41
sg16
g176
sg17
F1.2390000000000001
sg27
(lp1311
S'return'
p1312
asS'trials.thisRepN'
p1313
I0
sg42
g43
sg22
Nsg19
NsS'trials.thisTrialN'
p1314
I33
sg23
g132
sg21
Nsg18
Nsa(dp1315
g20
Nsg39
g11
sS'trials.thisIndex'
p1316
g35
(g60
S'\x05\x00\x00\x00'
tRp1317
sg25
Nsg913
V./img/edges5_GuentherJauch3_1.png
p1318
sg34
g38
sg24
F0.67300000000000004
sg915
g35
(g63
S'\x06\x00\x00\x00\x00\x00\x00\x00'
tRp1319
sg32
g33
sg26
S''
sg28
(lp1320
F0.11716107566826395
asS'trials.thisN'
p1321
I34
sg40
g41
sg16
g176
sg17
F1.206
sg27
(lp1322
S'return'
p1323
asS'trials.thisRepN'
p1324
I0
sg42
g43
sg22
Nsg19
NsS'trials.thisTrialN'
p1325
I34
sg23
g132
sg21
Nsg18
Nsa(dp1326
g20
Nsg39
g11
sS'trials.thisIndex'
p1327
g35
(g60
S'\x19\x00\x00\x00'
tRp1328
sg25
Nsg913
V./img/edges5_NicoleKidman7_1.png
p1329
sg34
g38
sg24
F2.8889999999999998
sg915
g35
(g63
S'\x1a\x00\x00\x00\x00\x00\x00\x00'
tRp1330
sg32
g33
sg26
S''
sg28
(lp1331
F0.350364022235226
asS'trials.thisN'
p1332
I35
sg40
g41
sg16
g176
sg17
F1.2729999999999999
sg27
(lp1333
S'return'
p1334
asS'trials.thisRepN'
p1335
I0
sg42
g43
sg22
Nsg19
NsS'trials.thisTrialN'
p1336
I35
sg23
g132
sg21
Nsg18
Nsa(dp1337
g20
Nsg39
g11
sS'trials.thisIndex'
p1338
g35
(g60
S'C\x00\x00\x00'
tRp1339
sg25
Nsg913
V./img/edges5_MariskaHargitay(Liv)4_4.png
p1340
sg34
g38
sg24
F0.70699999999999996
sg915
g35
(g63
S'D\x00\x00\x00\x00\x00\x00\x00'
tRp1341
sg32
g33
sg26
S''
sg28
(lp1342
F0.11715626395380241
asS'trials.thisN'
p1343
I36
sg40
g41
sg16
g176
sg17
F1.274
sg27
(lp1344
S'return'
p1345
asS'trials.thisRepN'
p1346
I0
sg42
g43
sg22
Nsg19
NsS'trials.thisTrialN'
p1347
I36
sg23
g321
sg21
Nsg18
Nsa(dp1348
g20
Nsg39
g11
sS'trials.thisIndex'
p1349
g35
(g60
S'G\x00\x00\x00'
tRp1350
sg25
Nsg913
V./img/edges5_EmilyDeschanel6_12.png
p1351
sg34
g38
sg24
Nsg915
g35
(g63
S'H\x00\x00\x00\x00\x00\x00\x00'
tRp1352
sg32
g33
sg26
S''
sg28
(lp1353
F0.066980026895180345
asS'trials.thisN'
p1354
I37
sg40
g41
sg16
g176
sg17
F1.206
sg27
(lp1355
S'return'
p1356
asS'trials.thisRepN'
p1357
I0
sg42
g43
sg22
F1.256
sg19
NsS'trials.thisTrialN'
p1358
I37
sg23
Nsg21
g181
sg18
Nsa(dp1359
g20
F0.59899999999999998
sg39
g11
sS'trials.thisIndex'
p1360
g35
(g60
S'\x14\x00\x00\x00'
tRp1361
sg25
Nsg913
V./img/edges5_JoshRadnor(Ted)3_1.png
p1362
sg34
g38
sg24
Nsg915
g35
(g63
S'\x15\x00\x00\x00\x00\x00\x00\x00'
tRp1363
sg32
g33
sg26
S'ted mosbi'
p1364
sg28
(lp1365
F0.7167824899788684
aF0.95007333052672038
aF1.1665347187645239
aF1.5497435035431408
aF1.7830901599791105
aF1.9996728034202533
aF2.4661143032371911
aF2.799292164732833
aF3.1323282410430693
aF3.3655424149419559
asS'trials.thisN'
p1366
I38
sg40
g41
sg16
g67
sg17
F5.0049999999999999
sg27
(lp1367
S't'
aS'e'
aS'd'
aS'space'
p1368
aS'm'
aS'o'
aS's'
aS'b'
aS'i'
aS'return'
p1369
asS'trials.thisRepN'
p1370
I0
sg42
g43
sg22
Nsg19
g71
sS'trials.thisTrialN'
p1371
I38
sg23
Nsg21
Nsg18
Nsa(dp1372
g20
Nsg39
g11
sS'trials.thisIndex'
p1373
g35
(g60
S'\x02\x00\x00\x00'
tRp1374
sg25
Nsg913
V./img/edges5_NicoleKidman5_1.png
p1375
sg34
g38
sg24
Nsg915
g35
(g63
S'\x03\x00\x00\x00\x00\x00\x00\x00'
tRp1376
sg32
g33
sg26
S''
sg28
(lp1377
F0.2501722593769955
asS'trials.thisN'
p1378
I39
sg40
g41
sg16
g176
sg17
F1.024
sg27
(lp1379
S'return'
p1380
asS'trials.thisRepN'
p1381
I0
sg42
g43
sg22
F1.3560000000000001
sg19
NsS'trials.thisTrialN'
p1382
I39
sg23
Nsg21
g120
sg18
Nsa(dp1383
g20
F0.624
sg39
g11
sS'trials.thisIndex'
p1384
g35
(g60
S'@\x00\x00\x00'
tRp1385
sg25
Nsg913
V./img/edges5_LisaEdelstein(DrLisaCuddy)1_1.png
p1386
sg34
g38
sg24
Nsg915
g35
(g63
S'A\x00\x00\x00\x00\x00\x00\x00'
tRp1387
sg32
g33
sg26
S''
sg28
(lp1388
F0.28323386984993704
asS'trials.thisN'
p1389
I40
sg40
g41
sg16
g67
sg17
F2.089
sg27
(lp1390
S'return'
p1391
asS'trials.thisRepN'
p1392
I0
sg42
g43
sg22
Nsg19
g71
sS'trials.thisTrialN'
p1393
I40
sg23
Nsg21
Nsg18
Nsa(dp1394
g20
F0.56799999999999995
sg39
g11
sS'trials.thisIndex'
p1395
g35
(g60
S';\x00\x00\x00'
tRp1396
sg25
Nsg913
V./img/edges5_TomCruise1_1.png
p1397
sg34
g38
sg24
Nsg915
g35
(g63
S'<\x00\x00\x00\x00\x00\x00\x00'
tRp1398
sg32
g33
sg26
S''
sg28
(lp1399
F0.11708857917255955
asS'trials.thisN'
p1400
I41
sg40
g41
sg16
g67
sg17
F5.1390000000000002
sg27
(lp1401
S'return'
p1402
asS'trials.thisRepN'
p1403
I0
sg42
g43
sg22
Nsg19
g71
sS'trials.thisTrialN'
p1404
I41
sg23
Nsg21
Nsg18
Nsa(dp1405
g20
F0.48299999999999998
sg39
g11
sS'trials.thisIndex'
p1406
g35
(g60
S'$\x00\x00\x00'
tRp1407
sg25
Nsg913
V./img/edges5_JasonSegel(Marshall)9_1.png
p1408
sg34
g38
sg24
Nsg915
g35
(g63
S'%\x00\x00\x00\x00\x00\x00\x00'
tRp1409
sg32
g33
sg26
S'marshal ericson'
p1410
sg28
(lp1411
F0.66679647602904879
aF1.1000371464342606
aF1.366377728561929
aF2.2329427932072576
aF2.5162382530015748
aF2.7828210247535026
aF3.1325531084949034
aF3.432383222898352
aF5.7149925322191848
aF5.898177386738098
aF6.2148478600065573
aF6.3979688791150693
aF7.4807396695705393
aF8.3137292326409806
aF8.4471648095586715
aF9.1977518387157033
aF9.4130362816104025
aF9.7467572252699028
aF10.179619374142931
aF11.445862759639567
asS'trials.thisN'
p1412
I42
sg40
g41
sg16
g67
sg17
F5.0890000000000004
sg27
(lp1413
S'm'
aS'a'
aS'r'
aS's'
aS'h'
aS'a'
aS'l'
aS'space'
p1414
aS'e'
aS'r'
aS'i'
aS'k'
aS's'
aS'backspace'
p1415
aS'backspace'
p1416
aS'c'
aS's'
aS'o'
aS'n'
aS'return'
p1417
asS'trials.thisRepN'
p1418
I0
sg42
g43
sg22
Nsg19
g106
sS'trials.thisTrialN'
p1419
I42
sg23
Nsg21
Nsg18
Nsa(dp1420
g20
Nsg39
g11
sS'trials.thisIndex'
p1421
g35
(g60
S'5\x00\x00\x00'
tRp1422
sg25
Nsg913
V./img/edges5_KatjaBurkard5_3.png
p1423
sg34
g38
sg24
F0.57299999999999995
sg915
g35
(g63
S'6\x00\x00\x00\x00\x00\x00\x00'
tRp1424
sg32
g33
sg26
S''
sg28
(lp1425
F0.16659181777686172
asS'trials.thisN'
p1426
I43
sg40
g41
sg16
g176
sg17
F1.3169999999999999
sg27
(lp1427
S'return'
p1428
asS'trials.thisRepN'
p1429
I0
sg42
g43
sg22
Nsg19
NsS'trials.thisTrialN'
p1430
I43
sg23
g132
sg21
Nsg18
Nsa(dp1431
g20
F0.40699999999999997
sg39
g11
sS'trials.thisIndex'
p1432
g35
(g60
S'\x0e\x00\x00\x00'
tRp1433
sg25
Nsg913
V./img/edges5_LisaEdelstein(DrLisaCuddy)6_3.png
p1434
sg34
g38
sg24
Nsg915
g35
(g63
S'\x0f\x00\x00\x00\x00\x00\x00\x00'
tRp1435
sg32
g33
sg26
S''
sg28
(lp1436
F0.11694583164353389
asS'trials.thisN'
p1437
I44
sg40
g41
sg16
g67
sg17
F2.6059999999999999
sg27
(lp1438
S'return'
p1439
asS'trials.thisRepN'
p1440
I0
sg42
g43
sg22
Nsg19
g71
sS'trials.thisTrialN'
p1441
I44
sg23
Nsg21
Nsg18
Nsa(dp1442
g20
F0.65700000000000003
sg39
g11
sS'trials.thisIndex'
p1443
g35
(g60
S'B\x00\x00\x00'
tRp1444
sg25
Nsg913
V./img/edges5_LeonardoDiCaprio2_1.png
p1445
sg34
g38
sg24
Nsg915
g35
(g63
S'C\x00\x00\x00\x00\x00\x00\x00'
tRp1446
sg32
g33
sg26
S'leonardo'
p1447
sg28
(lp1448
F0.68339528682918171
aF1.0832750581248547
aF1.3664428470983694
aF1.8330296606909542
aF2.2162259350116074
aF2.5493107700276596
aF2.7660711261214601
aF3.1158150787578052
aF3.3322681266909058
asS'trials.thisN'
p1449
I45
sg40
g41
sg16
g67
sg17
F1.0069999999999999
sg27
(lp1450
S'l'
aS'e'
aS'o'
aS'n'
aS'a'
aS'r'
aS'd'
aS'o'
aS'return'
p1451
asS'trials.thisRepN'
p1452
I0
sg42
g43
sg22
Nsg19
g106
sS'trials.thisTrialN'
p1453
I45
sg23
Nsg21
Nsg18
Nsa(dp1454
g20
Nsg39
g11
sS'trials.thisIndex'
p1455
g35
(g60
S'6\x00\x00\x00'
tRp1456
sg25
Nsg913
V./img/edges5_JoachimLoew1_1.png
p1457
sg34
g38
sg24
F0.85599999999999998
sg915
g35
(g63
S'7\x00\x00\x00\x00\x00\x00\x00'
tRp1458
sg32
g33
sg26
S''
sg28
(lp1459
F0.31702044529447448
asS'trials.thisN'
p1460
I46
sg40
g41
sg16
g67
sg17
F2.089
sg27
(lp1461
S'return'
p1462
asS'trials.thisRepN'
p1463
I0
sg42
g43
sg22
Nsg19
NsS'trials.thisTrialN'
p1464
I46
sg23
g132
sg21
Nsg18
Nsa(dp1465
g20
Nsg39
g11
sS'trials.thisIndex'
p1466
g35
(g60
S'\t\x00\x00\x00'
tRp1467
sg25
Nsg913
V./img/edges5_GuentherJauch4_1.png
p1468
sg34
g38
sg24
F0.60699999999999998
sg915
g35
(g63
S'\n\x00\x00\x00\x00\x00\x00\x00'
tRp1469
sg32
g33
sg26
S''
sg28
(lp1470
F0.10043138623586856
asS'trials.thisN'
p1471
I47
sg40
g41
sg16
g176
sg17
F1.107
sg27
(lp1472
S'return'
p1473
asS'trials.thisRepN'
p1474
I0
sg42
g43
sg22
Nsg19
NsS'trials.thisTrialN'
p1475
I47
sg23
g132
sg21
Nsg18
Nsa(dp1476
g20
Nsg39
g11
sS'trials.thisIndex'
p1477
g35
(g60
S'\x0b\x00\x00\x00'
tRp1478
sg25
Nsg913
V./img/edges5_UrsulavonderLeyen4_1.png
p1479
sg34
g38
sg24
F0.624
sg915
g35
(g63
S'\x0c\x00\x00\x00\x00\x00\x00\x00'
tRp1480
sg32
g33
sg26
S''
sg28
(lp1481
F0.083615085943165468
asS'trials.thisN'
p1482
I48
sg40
g41
sg16
g176
sg17
F1.1739999999999999
sg27
(lp1483
S'return'
p1484
asS'trials.thisRepN'
p1485
I0
sg42
g43
sg22
Nsg19
NsS'trials.thisTrialN'
p1486
I48
sg23
g132
sg21
Nsg18
Nsa(dp1487
g20
Nsg39
g11
sS'trials.thisIndex'
p1488
g35
(g60
S'\x0c\x00\x00\x00'
tRp1489
sg25
Nsg913
V./img/edges5_MariskaHargitay(Liv)6_5.png
p1490
sg34
g38
sg24
F0.65500000000000003
sg915
g35
(g63
S'\r\x00\x00\x00\x00\x00\x00\x00'
tRp1491
sg32
g33
sg26
S''
sg28
(lp1492
F0.10033451038543717
asS'trials.thisN'
p1493
I49
sg40
g41
sg16
g176
sg17
F0.83999999999999997
sg27
(lp1494
S'return'
p1495
asS'trials.thisRepN'
p1496
I0
sg42
g43
sg22
Nsg19
NsS'trials.thisTrialN'
p1497
I49
sg23
g321
sg21
Nsg18
Nsa(dp1498
g20
Nsg39
g11
sS'trials.thisIndex'
p1499
g35
(g60
S'=\x00\x00\x00'
tRp1500
sg25
Nsg913
V./img/edges5_AlysonHannigan(Lily)5_4.png
p1501
sg34
g38
sg24
Nsg915
g35
(g63
S'>\x00\x00\x00\x00\x00\x00\x00'
tRp1502
sg32
g33
sg26
S'stirling'
p1503
sg28
(lp1504
F1.1841417441246449
aF1.516479159503433
aF1.8165065541961667
aF2.2493475315259275
aF2.582743203292921
aF2.7325854432165215
aF3.2157778040109406
aF3.4489926194710279
aF3.8322014042514638
asS'trials.thisN'
p1505
I50
sg40
g41
sg16
g67
sg17
F1.556
sg27
(lp1506
S's'
aS't'
aS'i'
aS'r'
aS'l'
aS'i'
aS'n'
aS'g'
aS'return'
p1507
asS'trials.thisRepN'
p1508
I0
sg42
g43
sg22
F1.6559999999999999
sg19
NsS'trials.thisTrialN'
p1509
I50
sg23
Nsg21
g120
sg18
Nsa(dp1510
g20
Nsg39
g11
sS'trials.thisIndex'
p1511
g35
(g60
S'3\x00\x00\x00'
tRp1512
sg25
Nsg913
V./img/edges5_BarackObama4_1.png
p1513
sg34
g38
sg24
F1.0569999999999999
sg915
g35
(g63
S'4\x00\x00\x00\x00\x00\x00\x00'
tRp1514
sg32
g33
sg26
S'obama'
p1515
sg28
(lp1516
F0.4668450422668684
aF1.1998875983517792
aF1.5333066871298797
aF1.88294381970627
aF2.2329767959890887
aF2.6827890108143038
asS'trials.thisN'
p1517
I51
sg40
g41
sg16
g67
sg17
F0.94099999999999995
sg27
(lp1518
S'o'
aS'b'
aS'a'
aS'm'
aS'a'
aS'return'
p1519
asS'trials.thisRepN'
p1520
I0
sg42
g43
sg22
Nsg19
NsS'trials.thisTrialN'
p1521
I51
sg23
g132
sg21
Nsg18
Nsa(dp1522
g20
Nsg39
g11
sS'trials.thisIndex'
p1523
g35
(g60
S'"\x00\x00\x00'
tRp1524
sg25
Nsg913
V./img/edges5_WillSmith1_1.png
p1525
sg34
g38
sg24
Nsg915
g35
(g63
S'#\x00\x00\x00\x00\x00\x00\x00'
tRp1526
sg32
g33
sg26
S''
sg28
(lp1527
F0.13371722260126262
asS'trials.thisN'
p1528
I52
sg40
g41
sg16
g67
sg17
F1.2569999999999999
sg27
(lp1529
S'return'
p1530
asS'trials.thisRepN'
p1531
I0
sg42
g43
sg22
F0.83999999999999997
sg19
NsS'trials.thisTrialN'
p1532
I52
sg23
Nsg21
g120
sg18
Nsa(dp1533
g20
Nsg39
g11
sS'trials.thisIndex'
p1534
g35
(g60
S'E\x00\x00\x00'
tRp1535
sg25
Nsg913
V./img/edges5_BastianSchweinsteiger1_1.png
p1536
sg34
g38
sg24
F0.55600000000000005
sg915
g35
(g63
S'F\x00\x00\x00\x00\x00\x00\x00'
tRp1537
sg32
g33
sg26
S''
sg28
(lp1538
F0.10033098179519584
asS'trials.thisN'
p1539
I53
sg40
g41
sg16
g176
sg17
F1.29
sg27
(lp1540
S'return'
p1541
asS'trials.thisRepN'
p1542
I0
sg42
g43
sg22
Nsg19
NsS'trials.thisTrialN'
p1543
I53
sg23
g132
sg21
Nsg18
Nsa(dp1544
g20
Nsg39
g11
sS'trials.thisIndex'
p1545
g35
(g60
S'\x04\x00\x00\x00'
tRp1546
sg25
Nsg913
V./img/edges5_AlysonHannigan(Lily)1_1.png
p1547
sg34
g38
sg24
Nsg915
g35
(g63
S'\x05\x00\x00\x00\x00\x00\x00\x00'
tRp1548
sg32
g33
sg26
S'stirling'
p1549
sg28
(lp1550
F0.45030974609471741
aF1.6330814347365958
aF1.9163124175593111
aF3.0157330229885702
aF4.0988890713779256
aF4.2486212834319304
aF4.6818420654180954
aF4.9318982020868134
aF5.2649605824353785
asS'trials.thisN'
p1551
I54
sg40
g41
sg16
g67
sg17
F1.423
sg27
(lp1552
S's'
aS't'
aS'i'
aS'r'
aS'l'
aS'i'
aS'n'
aS'g'
aS'return'
p1553
asS'trials.thisRepN'
p1554
I0
sg42
g43
sg22
F1.222
sg19
NsS'trials.thisTrialN'
p1555
I54
sg23
Nsg21
g120
sg18
Nsa(dp1556
g20
F0.76600000000000001
sg39
g11
sS'trials.thisIndex'
p1557
g35
(g60
S'\x10\x00\x00\x00'
tRp1558
sg25
Nsg913
V./img/edges5_NeilPatrickHarris(Barney)3_7.png
p1559
sg34
g38
sg24
Nsg915
g35
(g63
S'\x11\x00\x00\x00\x00\x00\x00\x00'
tRp1560
sg32
g33
sg26
S'barni stinson'
p1561
sg28
(lp1562
F0.61684093626899994
aF1.099967536965778
aF1.2329655686553451
aF3.5156063145095686
aF3.7155481248428259
aF4.0652532629828784
aF4.7485394842860842
aF5.214698055297049
aF5.4148810929127649
aF5.7647876814971823
aF6.0480103240133758
aF8.5636795115915447
aF9.0134779328363948
aF9.2967053870670497
aF9.5466492503983318
aF10.04633648896197
aF10.945983052499287
aF11.262615994395674
aF11.745729122292687
aF12.045436377587976
asS'trials.thisN'
p1563
I55
sg40
g41
sg16
g67
sg17
F4.516
sg27
(lp1564
S'n'
aS'i'
aS'l'
aS'backspace'
p1565
aS'backspace'
p1566
aS'backspace'
p1567
aS'b'
aS'a'
aS'r'
aS'n'
aS'i'
aS'space'
p1568
aS's'
aS't'
aS'i'
aS'n'
aS's'
aS'o'
aS'n'
aS'return'
p1569
asS'trials.thisRepN'
p1570
I0
sg42
g43
sg22
Nsg19
g106
sS'trials.thisTrialN'
p1571
I55
sg23
Nsg21
Nsg18
Nsa(dp1572
g20
F1.4059999999999999
sg39
g11
sS'trials.thisIndex'
p1573
g35
(g60
S'\x1c\x00\x00\x00'
tRp1574
sg25
Nsg913
V./img/edges5_TomCruise4_1.png
p1575
sg34
g38
sg24
Nsg915
g35
(g63
S'\x1d\x00\x00\x00\x00\x00\x00\x00'
tRp1576
sg32
g33
sg26
S''
sg28
(lp1577
F0.18385592828963127
asS'trials.thisN'
p1578
I56
sg40
g41
sg16
g67
sg17
F1.833
sg27
(lp1579
S'return'
p1580
asS'trials.thisRepN'
p1581
I0
sg42
g43
sg22
Nsg19
g106
sS'trials.thisTrialN'
p1582
I56
sg23
Nsg21
Nsg18
Nsa(dp1583
g20
Nsg39
g11
sS'trials.thisIndex'
p1584
g35
(g60
S':\x00\x00\x00'
tRp1585
sg25
Nsg913
V./img/edges5_BastianSchweinsteiger3_1.png
p1586
sg34
g38
sg24
F0.79100000000000004
sg915
g35
(g63
S';\x00\x00\x00\x00\x00\x00\x00'
tRp1587
sg32
g33
sg26
S''
sg28
(lp1588
F0.11708376745809801
asS'trials.thisN'
p1589
I57
sg40
g41
sg16
g176
sg17
F1.04
sg27
(lp1590
S'return'
p1591
asS'trials.thisRepN'
p1592
I0
sg42
g43
sg22
Nsg19
NsS'trials.thisTrialN'
p1593
I57
sg23
g132
sg21
Nsg18
Nsa(dp1594
g20
Nsg39
g11
sS'trials.thisIndex'
p1595
g35
(g60
S'2\x00\x00\x00'
tRp1596
sg25
Nsg913
V./img/edges5_Ice-T(OdafinFinTutuola)6_1.png
p1597
sg34
g38
sg24
Nsg915
g35
(g63
S'3\x00\x00\x00\x00\x00\x00\x00'
tRp1598
sg32
g33
sg26
S''
sg28
(lp1599
F0.1005224880282185
asS'trials.thisN'
p1600
I58
sg40
g41
sg16
g176
sg17
F1.1899999999999999
sg27
(lp1601
S'return'
p1602
asS'trials.thisRepN'
p1603
I0
sg42
g43
sg22
F1.306
sg19
NsS'trials.thisTrialN'
p1604
I58
sg23
Nsg21
g181
sg18
Nsa(dp1605
g20
Nsg39
g11
sS'trials.thisIndex'
p1606
g35
(g60
S'A\x00\x00\x00'
tRp1607
sg25
Nsg913
V./img/edges5_BritneySpears1_1.png
p1608
sg34
g38
sg24
F1.2230000000000001
sg915
g35
(g63
S'B\x00\x00\x00\x00\x00\x00\x00'
tRp1609
sg32
g33
sg26
S''
sg28
(lp1610
F0.13376822677491873
asS'trials.thisN'
p1611
I59
sg40
g41
sg16
g176
sg17
F0.97199999999999998
sg27
(lp1612
S'return'
p1613
asS'trials.thisRepN'
p1614
I0
sg42
g43
sg22
Nsg19
NsS'trials.thisTrialN'
p1615
I59
sg23
g321
sg21
Nsg18
Nsa(dp1616
g20
Nsg39
g11
sS'trials.thisIndex'
p1617
g35
(g60
S'&\x00\x00\x00'
tRp1618
sg25
Nsg913
V./img/edges5_AlysonHannigan(Lily)8_3.png
p1619
sg34
g38
sg24
Nsg915
g35
(g63
S"'\x00\x00\x00\x00\x00\x00\x00"
tRp1620
sg32
g33
sg26
S'stirling'
p1621
sg28
(lp1622
F0.81670190980003099
aF2.0326356133573427
aF2.3327294097107369
aF2.7492846584573272
aF3.0491353028428421
aF3.215874679859553
aF3.5989150546356541
aF3.8656373661051475
aF4.1821400709304726
asS'trials.thisN'
p1623
I60
sg40
g41
sg16
g67
sg17
F1.556
sg27
(lp1624
S's'
aS't'
aS'i'
aS'r'
aS'l'
aS'i'
aS'n'
aS'g'
aS'return'
p1625
asS'trials.thisRepN'
p1626
I0
sg42
g43
sg22
F0.93799999999999994
sg19
NsS'trials.thisTrialN'
p1627
I60
sg23
Nsg21
g120
sg18
Nsa(dp1628
g20
Nsg39
g11
sS'trials.thisIndex'
p1629
g35
(g60
S"'\x00\x00\x00"
tRp1630
sg25
Nsg913
V./img/edges5_NicoleKidman3_1.png
p1631
sg34
g38
sg24
F1.423
sg915
g35
(g63
S'(\x00\x00\x00\x00\x00\x00\x00'
tRp1632
sg32
g33
sg26
S''
sg28
(lp1633
F0.16726032529732038
asS'trials.thisN'
p1634
I61
sg40
g41
sg16
g176
sg17
F1.0149999999999999
sg27
(lp1635
S'return'
p1636
asS'trials.thisRepN'
p1637
I0
sg42
g43
sg22
Nsg19
NsS'trials.thisTrialN'
p1638
I61
sg23
g321
sg21
Nsg18
Nsa(dp1639
g20
F0.90600000000000003
sg39
g11
sS'trials.thisIndex'
p1640
g35
(g60
S'\x1e\x00\x00\x00'
tRp1641
sg25
Nsg913
V./img/edges5_GeorgeClooney4_2.png
p1642
sg34
g38
sg24
Nsg915
g35
(g63
S'\x1f\x00\x00\x00\x00\x00\x00\x00'
tRp1643
sg32
g33
sg26
S''
sg28
(lp1644
F0.18374012636195403
asS'trials.thisN'
p1645
I62
sg40
g41
sg16
g67
sg17
F1.123
sg27
(lp1646
S'return'
p1647
asS'trials.thisRepN'
p1648
I0
sg42
g43
sg22
Nsg19
g106
sS'trials.thisTrialN'
p1649
I62
sg23
Nsg21
Nsg18
Nsa(dp1650
g20
F0.64000000000000001
sg39
g11
sS'trials.thisIndex'
p1651
g35
(g60
S'<\x00\x00\x00'
tRp1652
sg25
Nsg913
V./img/edges5_NeilPatrickHarris(Barney)2_2.png
p1653
sg34
g38
sg24
Nsg915
g35
(g63
S'=\x00\x00\x00\x00\x00\x00\x00'
tRp1654
sg32
g33
sg26
S'barni stinson'
p1655
sg28
(lp1656
F0.70002906275476562
aF1.0499308396247216
aF1.28321366065029
aF1.7663559796128538
aF2.0329207876329747
aF2.6160447579259198
aF2.9992407114659727
aF3.3158309894934064
aF3.5990465748291172
aF4.0494705189466913
aF4.598585291807467
aF4.9150103676402068
aF5.3982845275786531
aF5.6981540980414138
asS'trials.thisN'
p1657
I63
sg40
g41
sg16
g67
sg17
F2.9399999999999999
sg27
(lp1658
S'b'
aS'a'
aS'r'
aS'n'
aS'i'
aS'space'
p1659
aS's'
aS't'
aS'i'
aS'n'
aS's'
aS'o'
aS'n'
aS'return'
p1660
asS'trials.thisRepN'
p1661
I0
sg42
g43
sg22
Nsg19
g106
sS'trials.thisTrialN'
p1662
I63
sg23
Nsg21
Nsg18
Nsa(dp1663
g20
Nsg39
g11
sS'trials.thisIndex'
p1664
g35
(g60
S'(\x00\x00\x00'
tRp1665
sg25
Nsg913
V./img/edges5_OmarEpps(DrEricForeman)3_1.png
p1666
sg34
g38
sg24
Nsg915
g35
(g63
S')\x00\x00\x00\x00\x00\x00\x00'
tRp1667
sg32
g33
sg26
S''
sg28
(lp1668
F0.11694551086293359
asS'trials.thisN'
p1669
I64
sg40
g41
sg16
g67
sg17
F2.0339999999999998
sg27
(lp1670
S'return'
p1671
asS'trials.thisRepN'
p1672
I0
sg42
g43
sg22
F0.622
sg19
NsS'trials.thisTrialN'
p1673
I64
sg23
Nsg21
g120
sg18
Nsa(dp1674
g20
F2.206
sg39
g11
sS'trials.thisIndex'
p1675
g35
(g60
S',\x00\x00\x00'
tRp1676
sg25
Nsg913
V./img/edges5_WillSmith4_1.png
p1677
sg34
g38
sg24
Nsg915
g35
(g63
S'-\x00\x00\x00\x00\x00\x00\x00'
tRp1678
sg32
g33
sg26
S''
sg28
(lp1679
F0.16687667126825545
asS'trials.thisN'
p1680
I65
sg40
g41
sg16
g67
sg17
F1.1240000000000001
sg27
(lp1681
S'return'
p1682
asS'trials.thisRepN'
p1683
I0
sg42
g43
sg22
Nsg19
g71
sS'trials.thisTrialN'
p1684
I65
sg23
Nsg21
Nsg18
Nsa(dp1685
g20
F0.40699999999999997
sg39
g11
sS'trials.thisIndex'
p1686
g35
(g60
S'%\x00\x00\x00'
tRp1687
sg25
Nsg913
V./img/edges5_GeorgeClooney11_1.png
p1688
sg34
g38
sg24
Nsg915
g35
(g63
S'&\x00\x00\x00\x00\x00\x00\x00'
tRp1689
sg32
g33
sg26
S''
sg28
(lp1690
F0.067125661449608742
asS'trials.thisN'
p1691
I66
sg40
g41
sg16
g67
sg17
F1.0069999999999999
sg27
(lp1692
S'return'
p1693
asS'trials.thisRepN'
p1694
I0
sg42
g43
sg22
Nsg19
g71
sS'trials.thisTrialN'
p1695
I66
sg23
Nsg21
Nsg18
Nsa(dp1696
g20
Nsg39
g11
sS'trials.thisIndex'
p1697
g35
(g60
S'\x06\x00\x00\x00'
tRp1698
sg25
Nsg913
V./img/edges5_AngelaMerkel3_1.png
p1699
sg34
g38
sg24
F0.78900000000000003
sg915
g35
(g63
S'\x07\x00\x00\x00\x00\x00\x00\x00'
tRp1700
sg32
g33
sg26
S'merkel'
p1701
sg28
(lp1702
F0.65005523848049052
aF1.3498267141239921
aF1.516521502588148
aF1.949635143733758
aF2.2495666249214992
aF2.5493245636080246
aF2.8325719062595454
asS'trials.thisN'
p1703
I67
sg40
g41
sg16
g67
sg17
F1.073
sg27
(lp1704
S'm'
aS'e'
aS'r'
aS'k'
aS'e'
aS'l'
aS'return'
p1705
asS'trials.thisRepN'
p1706
I0
sg42
g43
sg22
Nsg19
NsS'trials.thisTrialN'
p1707
I67
sg23
g132
sg21
Nsg18
Nsa(dp1708
g20
Nsg39
g11
sS'trials.thisIndex'
p1709
g35
(g60
S'\x1b\x00\x00\x00'
tRp1710
sg25
Nsg913
V./img/edges5_Ice-T(OdafinFinTutuola)5_1.png
p1711
sg34
g38
sg24
Nsg915
g35
(g63
S'\x1c\x00\x00\x00\x00\x00\x00\x00'
tRp1712
sg32
g33
sg26
S''
sg28
(lp1713
F0.38364376376011933
asS'trials.thisN'
p1714
I68
sg40
g41
sg16
g176
sg17
F1.208
sg27
(lp1715
S'return'
p1716
asS'trials.thisRepN'
p1717
I0
sg42
g43
sg22
F1.0569999999999999
sg19
NsS'trials.thisTrialN'
p1718
I68
sg23
Nsg21
g181
sg18
Nsa(dp1719
g20
F0.70599999999999996
sg39
g11
sS'trials.thisIndex'
p1720
g35
(g60
S'0\x00\x00\x00'
tRp1721
sg25
Nsg913
V./img/edges5_RobertSeanLeonard(Wilson)2_6.png
p1722
sg34
g38
sg24
Nsg915
g35
(g63
S'1\x00\x00\x00\x00\x00\x00\x00'
tRp1723
sg32
g33
sg26
S''
sg28
(lp1724
F0.13355105806476786
asS'trials.thisN'
p1725
I69
sg40
g41
sg16
g67
sg17
F1.206
sg27
(lp1726
S'return'
p1727
asS'trials.thisRepN'
p1728
I0
sg42
g43
sg22
Nsg19
g106
sS'trials.thisTrialN'
p1729
I69
sg23
Nsg21
Nsg18
Nsa(dp1730
g20
F0.49099999999999999
sg39
g11
sS'trials.thisIndex'
p1731
g35
(g60
S'>\x00\x00\x00'
tRp1732
sg25
Nsg913
V./img/edges5_LisaEdelstein(DrLisaCuddy)2_2.png
p1733
sg34
g38
sg24
Nsg915
g35
(g63
S'?\x00\x00\x00\x00\x00\x00\x00'
tRp1734
sg32
g33
sg26
S''
sg28
(lp1735
F0.083845727453081054
asS'trials.thisN'
p1736
I70
sg40
g41
sg16
g67
sg17
F1.706
sg27
(lp1737
S'return'
p1738
asS'trials.thisRepN'
p1739
I0
sg42
g43
sg22
Nsg19
g106
sS'trials.thisTrialN'
p1740
I70
sg23
Nsg21
Nsg18
Nsa(dp1741
g20
Nsg39
g11
sS'trials.thisIndex'
p1742
g35
(g60
S'D\x00\x00\x00'
tRp1743
sg25
Nsg913
V./img/edges5_GuentherJauch2_1.png
p1744
sg34
g38
sg24
F0.64000000000000001
sg915
g35
(g63
S'E\x00\x00\x00\x00\x00\x00\x00'
tRp1745
sg32
g33
sg26
S''
sg28
(lp1746
F0.11717711471646908
asS'trials.thisN'
p1747
I71
sg40
g41
sg16
g176
sg17
F0.83899999999999997
sg27
(lp1748
S'return'
p1749
asS'trials.thisRepN'
p1750
I0
sg42
g43
sg22
Nsg19
NsS'trials.thisTrialN'
p1751
I71
sg23
g132
sg21
Nsg18
Nsa(dp1752
g20
Nsg39
g11
sS'trials.thisIndex'
p1753
g35
(g60
S'8\x00\x00\x00'
tRp1754
sg25
NsS'pic'
p1755
V./img/gray_UrsulavonderLeyen5_1.png
p1756
sg34
g38
sg24
F2.7050000000000001
sS'num'
p1757
g35
(g63
S'9\x00\x00\x00\x00\x00\x00\x00'
tRp1758
sg32
g33
sg26
S''
sg28
(lp1759
F0.11736733782709052
asS'trials.thisN'
p1760
I0
sg40
g41
sg16
g176
sg17
F1.45
sg27
(lp1761
S'return'
p1762
asS'trials.thisRepN'
p1763
I0
sg42
g43
sg22
Nsg19
NsS'trials.thisTrialN'
p1764
I0
sg23
g132
sg21
Nsg18
Nsa(dp1765
g20
F0.90600000000000003
sg39
g11
sS'trials.thisIndex'
p1766
g35
(g60
S'\n\x00\x00\x00'
tRp1767
sg25
Nsg1755
V./img/gray_EmilyDeschanel6_12.png
p1768
sg34
g38
sg24
Nsg1757
g35
(g63
S'\x0b\x00\x00\x00\x00\x00\x00\x00'
tRp1769
sg32
g33
sg26
S''
sg28
(lp1770
F0.13357351273225504
asS'trials.thisN'
p1771
I1
sg40
g41
sg16
g176
sg17
F2.0880000000000001
sg27
(lp1772
S'return'
p1773
asS'trials.thisRepN'
p1774
I0
sg42
g43
sg22
Nsg19
g71
sS'trials.thisTrialN'
p1775
I1
sg23
Nsg21
Nsg18
Nsa(dp1776
g20
F0.47299999999999998
sg39
g11
sS'trials.thisIndex'
p1777
g35
(g60
S'!\x00\x00\x00'
tRp1778
sg25
Nsg1755
V./img/gray_RobertSeanLeonard(Wilson)2_6.png
p1779
sg34
g38
sg24
Nsg1757
g35
(g63
S'"\x00\x00\x00\x00\x00\x00\x00'
tRp1780
sg32
g33
sg26
S''
sg28
(lp1781
F0.13346316408023995
asS'trials.thisN'
p1782
I2
sg40
g41
sg16
g67
sg17
F0.85599999999999998
sg27
(lp1783
S'return'
p1784
asS'trials.thisRepN'
p1785
I0
sg42
g43
sg22
Nsg19
g106
sS'trials.thisTrialN'
p1786
I2
sg23
Nsg21
Nsg18
Nsa(dp1787
g20
Nsg39
g11
sS'trials.thisIndex'
p1788
g35
(g60
S'\x00\x00\x00\x00'
tRp1789
sg25
Nsg1755
V./img/gray_JoachimLoew8_1.png
p1790
sg34
g38
sg24
F0.52200000000000002
sg1757
g35
(g63
S'\x01\x00\x00\x00\x00\x00\x00\x00'
tRp1791
sg32
g33
sg26
S''
sg28
(lp1792
F0.10002271129269502
asS'trials.thisN'
p1793
I3
sg40
g41
sg16
g176
sg17
F0.97199999999999998
sg27
(lp1794
S'return'
p1795
asS'trials.thisRepN'
p1796
I0
sg42
g43
sg22
Nsg19
NsS'trials.thisTrialN'
p1797
I3
sg23
g132
sg21
Nsg18
Nsa(dp1798
g20
F0.44900000000000001
sg39
g11
sS'trials.thisIndex'
p1799
g35
(g60
S'\x10\x00\x00\x00'
tRp1800
sg25
Nsg1755
V./img/gray_JasonSegel(Marshall)6_1.png
p1801
sg34
g38
sg24
Nsg1757
g35
(g63
S'\x11\x00\x00\x00\x00\x00\x00\x00'
tRp1802
sg32
g33
sg26
S'marshal erikson'
p1803
sg28
(lp1804
F1.0995697685757477
aF1.4995470572830527
aF1.7331990971943014
aF2.1996367476403975
aF3.1656272294276278
aF3.532367761255955
aF3.8488794479490025
aF4.7315287907331367
aF5.1982522570142464
aF5.5315173709313967
aF6.9809494603177882
aF7.1476984607652412
aF7.430882288785142
aF8.0472478276715265
aF8.6969370550759777
aF8.9968752726636012
aF9.3133847138888086
aF9.5967035906942328
asS'trials.thisN'
p1805
I4
sg40
g41
sg16
g67
sg17
F6.7199999999999998
sg27
(lp1806
S'm'
aS'a'
aS'r'
aS's'
aS'h'
aS'a'
aS'k'
aS'backspace'
p1807
aS'l'
aS'space'
p1808
aS'e'
aS'r'
aS'i'
aS'k'
aS's'
aS'o'
aS'n'
aS'return'
p1809
asS'trials.thisRepN'
p1810
I0
sg42
g43
sg22
Nsg19
g71
sS'trials.thisTrialN'
p1811
I4
sg23
Nsg21
Nsg18
Nsa(dp1812
g20
Nsg39
g11
sS'trials.thisIndex'
p1813
g35
(g60
S'\x1e\x00\x00\x00'
tRp1814
sg25
Nsg1755
V./img/gray_AngelaMerkel3_1.png
p1815
sg34
g38
sg24
F1.2390000000000001
sg1757
g35
(g63
S'\x1f\x00\x00\x00\x00\x00\x00\x00'
tRp1816
sg32
g33
sg26
S'merkel'
p1817
sg28
(lp1818
F0.53367622679434135
aF0.89999910181359155
aF1.0500575481055421
aF1.3166589251541154
aF1.6496956430255523
aF1.9496556737176434
aF2.2161961023830372
asS'trials.thisN'
p1819
I5
sg40
g41
sg16
g67
sg17
F1.4279999999999999
sg27
(lp1820
S'm'
aS'e'
aS'r'
aS'k'
aS'e'
aS'l'
aS'return'
p1821
asS'trials.thisRepN'
p1822
I0
sg42
g43
sg22
Nsg19
NsS'trials.thisTrialN'
p1823
I5
sg23
g132
sg21
Nsg18
Nsa(dp1824
g20
F2.1779999999999999
sg39
g11
sS'trials.thisIndex'
p1825
g35
(g60
S'<\x00\x00\x00'
tRp1826
sg25
Nsg1755
V./img/gray_AlysonHannigan(Lily)8_3.png
p1827
sg34
g38
sg24
Nsg1757
g35
(g63
S'=\x00\x00\x00\x00\x00\x00\x00'
tRp1828
sg32
g33
sg26
S'lili oldrin'
p1829
sg28
(lp1830
F0.56667432263748196
aF0.71682836165564368
aF0.88330662297084928
aF1.0332803830879129
aF3.7656569979008054
aF4.2654218654552096
aF4.4320932369100774
aF4.9983303351000359
aF5.1651066019276186
aF5.4648715977964457
aF5.7482203072304401
aF6.2811337169005128
asS'trials.thisN'
p1831
I6
sg40
g41
sg16
g67
sg17
F9.5030000000000001
sg27
(lp1832
S'l'
aS'i'
aS'l'
aS'i'
aS'space'
p1833
aS'o'
aS'l'
aS'd'
aS'r'
aS'i'
aS'n'
aS'return'
p1834
asS'trials.thisRepN'
p1835
I0
sg42
g43
sg22
Nsg19
g71
sS'trials.thisTrialN'
p1836
I6
sg23
Nsg21
Nsg18
Nsa(dp1837
g20
Nsg39
g11
sS'trials.thisIndex'
p1838
g35
(g60
S'&\x00\x00\x00'
tRp1839
sg25
Nsg1755
V./img/gray_UrsulavonderLeyen1_1.png
p1840
sg34
g38
sg24
F0.70599999999999996
sg1757
g35
(g63
S"'\x00\x00\x00\x00\x00\x00\x00"
tRp1841
sg32
g33
sg26
S''
sg28
(lp1842
F0.15038083115541667
asS'trials.thisN'
p1843
I7
sg40
g41
sg16
g176
sg17
F1.383
sg27
(lp1844
S'return'
p1845
asS'trials.thisRepN'
p1846
I0
sg42
g43
sg22
Nsg19
NsS'trials.thisTrialN'
p1847
I7
sg23
g132
sg21
Nsg18
Nsa(dp1848
g20
F3.9550000000000001
sg39
g11
sS'trials.thisIndex'
p1849
g35
(g60
S'0\x00\x00\x00'
tRp1850
sg25
Nsg1755
V./img/gray_NeilPatrickHarris(Barney)1_1.png
p1851
sg34
g38
sg24
Nsg1757
g35
(g63
S'1\x00\x00\x00\x00\x00\x00\x00'
tRp1852
sg32
g33
sg26
S'barni'
p1853
sg28
(lp1854
F0.96594428932985466
aF1.8660944789753557
aF2.133751546165513
aF2.449423107522307
aF2.7154259072976856
aF3.3156731652616145
asS'trials.thisN'
p1855
I8
sg40
g41
sg16
g67
sg17
F1.1060000000000001
sg27
(lp1856
S'b'
aS'a'
aS'r'
aS'n'
aS'i'
aS'return'
p1857
asS'trials.thisRepN'
p1858
I0
sg42
g43
sg22
Nsg19
g71
sS'trials.thisTrialN'
p1859
I8
sg23
Nsg21
Nsg18
Nsa(dp1860
g20
Nsg39
g11
sS'trials.thisIndex'
p1861
g35
(g60
S'4\x00\x00\x00'
tRp1862
sg25
Nsg1755
V./img/gray_Ice-T(OdafinFinTutuola)5_1.png
p1863
sg34
g38
sg24
Nsg1757
g35
(g63
S'5\x00\x00\x00\x00\x00\x00\x00'
tRp1864
sg32
g33
sg26
S''
sg28
(lp1865
F0.21695603247826512
asS'trials.thisN'
p1866
I9
sg40
g41
sg16
g176
sg17
F0.93999999999999995
sg27
(lp1867
S'return'
p1868
asS'trials.thisRepN'
p1869
I0
sg42
g43
sg22
F7.6539999999999999
sg19
NsS'trials.thisTrialN'
p1870
I9
sg23
Nsg21
g181
sg18
Nsa(dp1871
g20
F2.8719999999999999
sg39
g11
sS'trials.thisIndex'
p1872
g35
(g60
S'\t\x00\x00\x00'
tRp1873
sg25
Nsg1755
V./img/gray_HughLaurie(DrHouse)2_1.png
p1874
sg34
g38
sg24
Nsg1757
g35
(g63
S'\n\x00\x00\x00\x00\x00\x00\x00'
tRp1875
sg32
g33
sg26
S'chyu lori'
p1876
sg28
(lp1877
F0.56644303956636577
aF0.83341620174724085
aF1.7830122102059249
aF2.0996005635479378
aF2.6492831187097181
aF3.082533412543853
aF3.2324282605459302
aF3.7488644353998097
aF4.015751949065816
aF4.3319428547965799
asS'trials.thisN'
p1878
I10
sg40
g41
sg16
g67
sg17
F1.173
sg27
(lp1879
S'c'
aS'h'
aS'y'
aS'u'
aS'space'
p1880
aS'l'
aS'o'
aS'r'
aS'i'
aS'return'
p1881
asS'trials.thisRepN'
p1882
I0
sg42
g43
sg22
Nsg19
g71
sS'trials.thisTrialN'
p1883
I10
sg23
Nsg21
Nsg18
Nsa(dp1884
g20
F4.6040000000000001
sg39
g11
sS'trials.thisIndex'
p1885
g35
(g60
S'#\x00\x00\x00'
tRp1886
sg25
Nsg1755
V./img/gray_TomCruise5_1.png
p1887
sg34
g38
sg24
Nsg1757
g35
(g63
S'$\x00\x00\x00\x00\x00\x00\x00'
tRp1888
sg32
g33
sg26
S''
sg28
(lp1889
F53.412716462991739
asS'trials.thisN'
p1890
I11
sg40
g41
sg16
g67
sg17
F1.944
sg27
(lp1891
S'return'
p1892
asS'trials.thisRepN'
p1893
I0
sg42
g43
sg22
Nsg19
g71
sS'trials.thisTrialN'
p1894
I11
sg23
Nsg21
Nsg18
Nsa(dp1895
g20
Nsg39
g11
sS'trials.thisIndex'
p1896
g35
(g60
S'\x13\x00\x00\x00'
tRp1897
sg25
Nsg1755
V./img/gray_WillSmith1_1.png
p1898
sg34
g38
sg24
Nsg1757
g35
(g63
S'\x14\x00\x00\x00\x00\x00\x00\x00'
tRp1899
sg32
g33
sg26
S''
sg28
(lp1900
F0.066972328151678084
asS'trials.thisN'
p1901
I12
sg40
g41
sg16
g176
sg17
F1.2130000000000001
sg27
(lp1902
S'return'
p1903
asS'trials.thisRepN'
p1904
I0
sg42
g43
sg22
F0.55600000000000005
sg19
NsS'trials.thisTrialN'
p1905
I12
sg23
Nsg21
g120
sg18
Nsa(dp1906
g20
F3.7389999999999999
sg39
g11
sS'trials.thisIndex'
p1907
g35
(g60
S'?\x00\x00\x00'
tRp1908
sg25
Nsg1755
V./img/gray_LisaEdelstein(DrLisaCuddy)2_2.png
p1909
sg34
g38
sg24
Nsg1757
g35
(g63
S'@\x00\x00\x00\x00\x00\x00\x00'
tRp1910
sg32
g33
sg26
S''
sg28
(lp1911
F0.15031025934513309
asS'trials.thisN'
p1912
I13
sg40
g41
sg16
g67
sg17
F1.339
sg27
(lp1913
S'return'
p1914
asS'trials.thisRepN'
p1915
I0
sg42
g43
sg22
Nsg19
g106
sS'trials.thisTrialN'
p1916
I13
sg23
Nsg21
Nsg18
Nsa(dp1917
g20
F1.456
sg39
g11
sS'trials.thisIndex'
p1918
g35
(g60
S'G\x00\x00\x00'
tRp1919
sg25
Nsg1755
V./img/gray_WillSmith4_1.png
p1920
sg34
g38
sg24
Nsg1757
g35
(g63
S'H\x00\x00\x00\x00\x00\x00\x00'
tRp1921
sg32
g33
sg26
S''
sg28
(lp1922
F0.18339272058256029
asS'trials.thisN'
p1923
I14
sg40
g41
sg16
g67
sg17
F1.722
sg27
(lp1924
S'return'
p1925
asS'trials.thisRepN'
p1926
I0
sg42
g43
sg22
Nsg19
g71
sS'trials.thisTrialN'
p1927
I14
sg23
Nsg21
Nsg18
Nsa(dp1928
g20
Nsg39
g11
sS'trials.thisIndex'
p1929
g35
(g60
S'3\x00\x00\x00'
tRp1930
sg25
Nsg1755
V./img/gray_EmilyDeschanel5_1.png
p1931
sg34
g38
sg24
Nsg1757
g35
(g63
S'4\x00\x00\x00\x00\x00\x00\x00'
tRp1932
sg32
g33
sg26
S''
sg28
(lp1933
F0.13336404276378744
asS'trials.thisN'
p1934
I15
sg40
g41
sg16
g176
sg17
F1.238
sg27
(lp1935
S'return'
p1936
asS'trials.thisRepN'
p1937
I0
sg42
g43
sg22
F0.93899999999999995
sg19
NsS'trials.thisTrialN'
p1938
I15
sg23
Nsg21
g120
sg18
Nsa(dp1939
g20
Nsg39
g11
sS'trials.thisIndex'
p1940
g35
(g60
S'$\x00\x00\x00'
tRp1941
sg25
Nsg1755
V./img/gray_TomCruise1_1.png
p1942
sg34
g38
sg24
Nsg1757
g35
(g63
S'%\x00\x00\x00\x00\x00\x00\x00'
tRp1943
sg32
g33
sg26
S''
sg28
(lp1944
F0.13352154621679801
asS'trials.thisN'
p1945
I16
sg40
g41
sg16
g176
sg17
F1.7230000000000001
sg27
(lp1946
S'return'
p1947
asS'trials.thisRepN'
p1948
I0
sg42
g43
sg22
F0.63900000000000001
sg19
NsS'trials.thisTrialN'
p1949
I16
sg23
Nsg21
g120
sg18
Nsa(dp1950
g20
Nsg39
g11
sS'trials.thisIndex'
p1951
g35
(g60
S'6\x00\x00\x00'
tRp1952
sg25
Nsg1755
V./img/gray_Ice-T(OdafinFinTutuola)6_1.png
p1953
sg34
g38
sg24
Nsg1757
g35
(g63
S'7\x00\x00\x00\x00\x00\x00\x00'
tRp1954
sg32
g33
sg26
S''
sg28
(lp1955
F0.10063636527047493
asS'trials.thisN'
p1956
I17
sg40
g41
sg16
g176
sg17
F1.1559999999999999
sg27
(lp1957
S'return'
p1958
asS'trials.thisRepN'
p1959
I0
sg42
g43
sg22
F0.77200000000000002
sg19
NsS'trials.thisTrialN'
p1960
I17
sg23
Nsg21
g181
sg18
Nsa(dp1961
g20
F0.71899999999999997
sg39
g11
sS'trials.thisIndex'
p1962
g35
(g60
S'\x0f\x00\x00\x00'
tRp1963
sg25
Nsg1755
V./img/gray_JoshRadnor(Ted)1_2.png
p1964
sg34
g38
sg24
Nsg1757
g35
(g63
S'\x10\x00\x00\x00\x00\x00\x00\x00'
tRp1965
sg32
g33
sg26
S'ted mosbi'
p1966
sg28
(lp1967
F0.51709473816481477
aF0.80034849643561756
aF1.4165087355067953
aF2.0497880920975149
aF2.4828802409192576
aF2.7495383961977495
aF4.931988983098563
aF5.2485654675438127
aF5.5649215754692705
aF5.8314530222687608
asS'trials.thisN'
p1968
I18
sg40
g41
sg16
g67
sg17
F12.301
sg27
(lp1969
S't'
aS'e'
aS'd'
aS'space'
p1970
aS'm'
aS'o'
aS's'
aS'b'
aS'i'
aS'return'
p1971
asS'trials.thisRepN'
p1972
I0
sg42
g43
sg22
Nsg19
g71
sS'trials.thisTrialN'
p1973
I18
sg23
Nsg21
Nsg18
Nsa(dp1974
g20
Nsg39
g11
sS'trials.thisIndex'
p1975
g35
(g60
S';\x00\x00\x00'
tRp1976
sg25
Nsg1755
V./img/gray_EmilyDeschanel3_1.png
p1977
sg34
g38
sg24
Nsg1757
g35
(g63
S'<\x00\x00\x00\x00\x00\x00\x00'
tRp1978
sg32
g33
sg26
S''
sg28
(lp1979
F0.10034124678713852
asS'trials.thisN'
p1980
I19
sg40
g41
sg16
g176
sg17
F1.0860000000000001
sg27
(lp1981
S'return'
p1982
asS'trials.thisRepN'
p1983
I0
sg42
g43
sg22
F1.2050000000000001
sg19
NsS'trials.thisTrialN'
p1984
I19
sg23
Nsg21
g120
sg18
Nsa(dp1985
g20
Nsg39
g11
sS'trials.thisIndex'
p1986
g35
(g60
S'\x04\x00\x00\x00'
tRp1987
sg25
Nsg1755
V./img/gray_OmarEpps(DrEricForeman)2_2.png
p1988
sg34
g38
sg24
Nsg1757
g35
(g63
S'\x05\x00\x00\x00\x00\x00\x00\x00'
tRp1989
sg32
g33
sg26
S'rep'
p1990
sg28
(lp1991
F2.1162744370940345
aF2.2660165933575627
aF2.9327351196134259
aF3.1991767477429676
asS'trials.thisN'
p1992
I20
sg40
g41
sg16
g176
sg17
F1.4390000000000001
sg27
(lp1993
S'r'
aS'e'
aS'p'
aS'return'
p1994
asS'trials.thisRepN'
p1995
I0
sg42
g43
sg22
F1.5049999999999999
sg19
NsS'trials.thisTrialN'
p1996
I20
sg23
Nsg21
g120
sg18
Nsa(dp1997
g20
Nsg39
g11
sS'trials.thisIndex'
p1998
g35
(g60
S'\x0b\x00\x00\x00'
tRp1999
sg25
Nsg1755
V./img/gray_BarackObama2_1.png
p2000
sg34
g38
sg24
F0.82299999999999995
sg1757
g35
(g63
S'\x0c\x00\x00\x00\x00\x00\x00\x00'
tRp2001
sg32
g33
sg26
S'obama'
p2002
sg28
(lp2003
F0.25024218962607847
aF0.81702557779135532
aF1.2002507223987777
aF1.4998704044919577
aF1.8998460892962612
aF2.2997021228002268
asS'trials.thisN'
p2004
I21
sg40
g41
sg16
g67
sg17
F1.0720000000000001
sg27
(lp2005
S'o'
aS'b'
aS'a'
aS'm'
aS'a'
aS'return'
p2006
asS'trials.thisRepN'
p2007
I0
sg42
g43
sg22
Nsg19
NsS'trials.thisTrialN'
p2008
I21
sg23
g132
sg21
Nsg18
Nsa(dp2009
g20
Nsg39
g11
sS'trials.thisIndex'
p2010
g35
(g60
S'\x07\x00\x00\x00'
tRp2011
sg25
Nsg1755
V./img/gray_BastianSchweinsteiger6_2.png
p2012
sg34
g38
sg24
F0.70599999999999996
sg1757
g35
(g63
S'\x08\x00\x00\x00\x00\x00\x00\x00'
tRp2013
sg32
g33
sg26
S''
sg28
(lp2014
F0.116958662882098
asS'trials.thisN'
p2015
I22
sg40
g41
sg16
g176
sg17
F1.2390000000000001
sg27
(lp2016
S'return'
p2017
asS'trials.thisRepN'
p2018
I0
sg42
g43
sg22
Nsg19
NsS'trials.thisTrialN'
p2019
I22
sg23
g321
sg21
Nsg18
Nsa(dp2020
g20
F1.173
sg39
g11
sS'trials.thisIndex'
p2021
g35
(g60
S'\x11\x00\x00\x00'
tRp2022
sg25
Nsg1755
V./img/gray_JasonSegel(Marshall)7_1.png
p2023
sg34
g38
sg24
Nsg1757
g35
(g63
S'\x12\x00\x00\x00\x00\x00\x00\x00'
tRp2024
sg32
g33
sg26
S'marshal'
p2025
sg28
(lp2026
F4.8152381862782931
aF5.8314796470895089
aF6.0980826280429028
aF6.9975517997081624
aF7.2808450140364585
aF7.5808890893404168
aF7.9142607025351026
aF8.1636794474343333
asS'trials.thisN'
p2027
I23
sg40
g41
sg16
g67
sg17
F1.2889999999999999
sg27
(lp2028
S'm'
aS'a'
aS'r'
aS's'
aS'h'
aS'a'
aS'l'
aS'return'
p2029
asS'trials.thisRepN'
p2030
I0
sg42
g43
sg22
Nsg19
g71
sS'trials.thisTrialN'
p2031
I23
sg23
Nsg21
Nsg18
Nsa(dp2032
g20
F0.97299999999999998
sg39
g11
sS'trials.thisIndex'
p2033
g35
(g60
S'/\x00\x00\x00'
tRp2034
sg25
Nsg1755
V./img/gray_LeonardoDiCaprio2_1.png
p2035
sg34
g38
sg24
Nsg1757
g35
(g63
S'0\x00\x00\x00\x00\x00\x00\x00'
tRp2036
sg32
g33
sg26
S'di kaprio'
p2037
sg28
(lp2038
F0.81674938538344577
aF1.4330379368402646
aF2.1329611418768764
aF2.5160910145405069
aF2.8326543469665921
aF3.6323972089485324
aF3.9820978561565425
aF4.3819224531271175
aF4.8318726037668966
aF5.1148575475908729
aF5.2649926605317887
aF5.8147621473326581
asS'trials.thisN'
p2039
I24
sg40
g41
sg16
g67
sg17
F1.0840000000000001
sg27
(lp2040
S'd'
aS'o'
aS'backspace'
p2041
aS'i'
aS'space'
p2042
aS'k'
aS'a'
aS'p'
aS'r'
aS'i'
aS'o'
aS'return'
p2043
asS'trials.thisRepN'
p2044
I0
sg42
g43
sg22
Nsg19
g71
sS'trials.thisTrialN'
p2045
I24
sg23
Nsg21
Nsg18
Nsa(dp2046
g20
Nsg39
g11
sS'trials.thisIndex'
p2047
g35
(g60
S'\x1c\x00\x00\x00'
tRp2048
sg25
Nsg1755
V./img/gray_UrsulavonderLeyen4_1.png
p2049
sg34
g38
sg24
F0.67300000000000004
sg1757
g35
(g63
S'\x1d\x00\x00\x00\x00\x00\x00\x00'
tRp2050
sg32
g33
sg26
S''
sg28
(lp2051
F0.10045544480817625
asS'trials.thisN'
p2052
I25
sg40
g41
sg16
g176
sg17
F1.0489999999999999
sg27
(lp2053
S'return'
p2054
asS'trials.thisRepN'
p2055
I0
sg42
g43
sg22
Nsg19
NsS'trials.thisTrialN'
p2056
I25
sg23
g132
sg21
Nsg18
Nsa(dp2057
g20
F0.61499999999999999
sg39
g11
sS'trials.thisIndex'
p2058
g35
(g60
S'\x0c\x00\x00\x00'
tRp2059
sg25
Nsg1755
V./img/gray_NeilPatrickHarris(Barney)2_2.png
p2060
sg34
g38
sg24
Nsg1757
g35
(g63
S'\r\x00\x00\x00\x00\x00\x00\x00'
tRp2061
sg32
g33
sg26
S'barni stinson'
p2062
sg28
(lp2063
F0.81667368107628135
aF1.3498446778594371
aF1.7996206444367999
aF2.3661499740810541
aF2.565991700754239
aF2.8993787114359293
aF3.1325361071048974
aF3.4989561787551793
aF4.0821333986878017
aF4.3820392173965956
aF4.6485488510897994
aF5.1483608734470181
aF5.5482197939818434
aF5.8814688688489696
aF6.2812546513232519
aF6.6308978787401429
asS'trials.thisN'
p2064
I26
sg40
g41
sg16
g67
sg17
F5.0039999999999996
sg27
(lp2065
S'n'
aS'backspace'
p2066
aS'b'
aS'a'
aS'r'
aS'n'
aS'i'
aS'space'
p2067
aS's'
aS't'
aS'i'
aS'n'
aS's'
aS'o'
aS'n'
aS'return'
p2068
asS'trials.thisRepN'
p2069
I0
sg42
g43
sg22
Nsg19
g71
sS'trials.thisTrialN'
p2070
I26
sg23
Nsg21
Nsg18
Nsa(dp2071
g20
F1.1559999999999999
sg39
g11
sS'trials.thisIndex'
p2072
g35
(g60
S'2\x00\x00\x00'
tRp2073
sg25
Nsg1755
V./img/gray_AlysonHannigan(Lily)1_1.png
p2074
sg34
g38
sg24
Nsg1757
g35
(g63
S'3\x00\x00\x00\x00\x00\x00\x00'
tRp2075
sg32
g33
sg26
S'lili'
p2076
sg28
(lp2077
F0.30057657169709273
aF0.46695154154440388
aF0.63346605110928067
aF0.8167519516300672
aF1.2333719981306785
asS'trials.thisN'
p2078
I27
sg40
g41
sg16
g67
sg17
F2.1160000000000001
sg27
(lp2079
S'l'
aS'i'
aS'l'
aS'i'
aS'return'
p2080
asS'trials.thisRepN'
p2081
I0
sg42
g43
sg22
Nsg19
g106
sS'trials.thisTrialN'
p2082
I27
sg23
Nsg21
Nsg18
Nsa(dp2083
g20
Nsg39
g11
sS'trials.thisIndex'
p2084
g35
(g60
S'\x03\x00\x00\x00'
tRp2085
sg25
Nsg1755
V./img/gray_AngelaMerkel1_1.png
p2086
sg34
g38
sg24
F0.78900000000000003
sg1757
g35
(g63
S'\x04\x00\x00\x00\x00\x00\x00\x00'
tRp2087
sg32
g33
sg26
S'merkel'
p2088
sg28
(lp2089
F0.46679660433983372
aF0.83333311947899347
aF0.98336109157753526
aF1.2830863106082688
aF1.6330782269269548
aF2.0661440717103687
aF2.332711445977111
asS'trials.thisN'
p2090
I28
sg40
g41
sg16
g67
sg17
F1.3220000000000001
sg27
(lp2091
S'm'
aS'e'
aS'r'
aS'k'
aS'e'
aS'l'
aS'return'
p2092
asS'trials.thisRepN'
p2093
I0
sg42
g43
sg22
Nsg19
NsS'trials.thisTrialN'
p2094
I28
sg23
g132
sg21
Nsg18
Nsa(dp2095
g20
F0.98799999999999999
sg39
g11
sS'trials.thisIndex'
p2096
g35
(g60
S'\x12\x00\x00\x00'
tRp2097
sg25
Nsg1755
V./img/gray_JasonSegel(Marshall)9_1.png
p2098
sg34
g38
sg24
Nsg1757
g35
(g63
S'\x13\x00\x00\x00\x00\x00\x00\x00'
tRp2099
sg32
g33
sg26
S'marshal'
p2100
sg28
(lp2101
F0.35033418960483687
aF0.73348491303113406
aF1.0001023291260935
aF2.3160731791194848
aF2.548972025335388
aF2.8160311568135512
aF3.1325345032000769
aF3.3992587393568101
asS'trials.thisN'
p2102
I29
sg40
g41
sg16
g67
sg17
F3.8719999999999999
sg27
(lp2103
S'm'
aS'a'
aS'r'
aS's'
aS'h'
aS'a'
aS'l'
aS'return'
p2104
asS'trials.thisRepN'
p2105
I0
sg42
g43
sg22
Nsg19
g71
sS'trials.thisTrialN'
p2106
I29
sg23
Nsg21
Nsg18
Nsa(dp2107
g20
F6.5369999999999999
sg39
g11
sS'trials.thisIndex'
p2108
g35
(g60
S'\x14\x00\x00\x00'
tRp2109
sg25
Nsg1755
V./img/gray_HughLaurie(DrHouse)4_1.png
p2110
sg34
g38
sg24
Nsg1757
g35
(g63
S'\x15\x00\x00\x00\x00\x00\x00\x00'
tRp2111
sg32
g33
sg26
S'chyu lori'
p2112
sg28
(lp2113
F2.0494788592513942
aF3.0825956440512527
aF3.4322863470497396
aF3.7322579258561746
aF4.0323408156564255
aF4.3486949988964625
aF4.4986902513392124
aF4.8317609719924803
aF5.0818001072693733
aF5.3316955326772586
asS'trials.thisN'
p2114
I30
sg40
g41
sg16
g67
sg17
F1.155
sg27
(lp2115
S'c'
aS'h'
aS'y'
aS'u'
aS'space'
p2116
aS'l'
aS'o'
aS'r'
aS'i'
aS'return'
p2117
asS'trials.thisRepN'
p2118
I0
sg42
g43
sg22
Nsg19
g106
sS'trials.thisTrialN'
p2119
I30
sg23
Nsg21
Nsg18
Nsa(dp2120
g20
Nsg39
g11
sS'trials.thisIndex'
p2121
g35
(g60
S'\x06\x00\x00\x00'
tRp2122
sg25
Nsg1755
V./img/gray_OmarEpps(DrEricForeman)1_5.png
p2123
sg34
g38
sg24
Nsg1757
g35
(g63
S'\x07\x00\x00\x00\x00\x00\x00\x00'
tRp2124
sg32
g33
sg26
S''
sg28
(lp2125
F0.11706291669543134
asS'trials.thisN'
p2126
I31
sg40
g41
sg16
g67
sg17
F2.032
sg27
(lp2127
S'return'
p2128
asS'trials.thisRepN'
p2129
I0
sg42
g43
sg22
F0.57199999999999995
sg19
NsS'trials.thisTrialN'
p2130
I31
sg23
Nsg21
g120
sg18
Nsa(dp2131
g20
F2.5550000000000002
sg39
g11
sS'trials.thisIndex'
p2132
g35
(g60
S'A\x00\x00\x00'
tRp2133
sg25
Nsg1755
V./img/gray_NeilPatrickHarris(Barney)3_7.png
p2134
sg34
g38
sg24
Nsg1757
g35
(g63
S'B\x00\x00\x00\x00\x00\x00\x00'
tRp2135
sg32
g33
sg26
S'barni'
p2136
sg28
(lp2137
F0.53362810965154495
aF0.86685280516576313
aF1.100071469998511
aF1.499774170204546
aF1.7329979675323557
aF1.9996368759530014
asS'trials.thisN'
p2138
I32
sg40
g41
sg16
g67
sg17
F3.5209999999999999
sg27
(lp2139
S'b'
aS'a'
aS'r'
aS'n'
aS'i'
aS'return'
p2140
asS'trials.thisRepN'
p2141
I0
sg42
g43
sg22
Nsg19
g106
sS'trials.thisTrialN'
p2142
I32
sg23
Nsg21
Nsg18
Nsa(dp2143
g20
F0.93899999999999995
sg39
g11
sS'trials.thisIndex'
p2144
g35
(g60
S':\x00\x00\x00'
tRp2145
sg25
Nsg1755
V./img/gray_AlysonHannigan(Lily)5_4.png
p2146
sg34
g38
sg24
Nsg1757
g35
(g63
S';\x00\x00\x00\x00\x00\x00\x00'
tRp2147
sg32
g33
sg26
S'lili'
p2148
sg28
(lp2149
F0.21701730164204491
aF0.4670153769566241
aF0.65012869732163381
aF0.85063444058323512
aF1.2666838177556201
asS'trials.thisN'
p2150
I33
sg40
g41
sg16
g67
sg17
F2.4889999999999999
sg27
(lp2151
S'l'
aS'i'
aS'l'
aS'i'
aS'return'
p2152
asS'trials.thisRepN'
p2153
I0
sg42
g43
sg22
Nsg19
g106
sS'trials.thisTrialN'
p2154
I33
sg23
Nsg21
Nsg18
Nsa(dp2155
g20
Nsg39
g11
sS'trials.thisIndex'
p2156
g35
(g60
S' \x00\x00\x00'
tRp2157
sg25
Nsg1755
V./img/gray_KatjaBurkard4_1.png
p2158
sg34
g38
sg24
F0.83899999999999997
sg1757
g35
(g63
S'!\x00\x00\x00\x00\x00\x00\x00'
tRp2159
sg32
g33
sg26
S''
sg28
(lp2160
F0.25023449088257621
asS'trials.thisN'
p2161
I34
sg40
g41
sg16
g176
sg17
F1.056
sg27
(lp2162
S'return'
p2163
asS'trials.thisRepN'
p2164
I0
sg42
g43
sg22
Nsg19
NsS'trials.thisTrialN'
p2165
I34
sg23
g132
sg21
Nsg18
Nsa(dp2166
g20
Nsg39
g11
sS'trials.thisIndex'
p2167
g35
(g60
S'-\x00\x00\x00'
tRp2168
sg25
Nsg1755
V./img/gray_GuentherJauch3_1.png
p2169
sg34
g38
sg24
F0.57199999999999995
sg1757
g35
(g63
S'.\x00\x00\x00\x00\x00\x00\x00'
tRp2170
sg32
g33
sg26
S''
sg28
(lp2171
F0.23347593116341159
asS'trials.thisN'
p2172
I35
sg40
g41
sg16
g176
sg17
F1.073
sg27
(lp2173
S'return'
p2174
asS'trials.thisRepN'
p2175
I0
sg42
g43
sg22
Nsg19
NsS'trials.thisTrialN'
p2176
I35
sg23
g132
sg21
Nsg18
Nsa(dp2177
g20
Nsg39
g11
sS'trials.thisIndex'
p2178
g35
(g60
S'1\x00\x00\x00'
tRp2179
sg25
Nsg1755
V./img/gray_BastianSchweinsteiger3_1.png
p2180
sg34
g38
sg24
F0.83899999999999997
sg1757
g35
(g63
S'2\x00\x00\x00\x00\x00\x00\x00'
tRp2181
sg32
g33
sg26
S''
sg28
(lp2182
F0.16706849828369741
asS'trials.thisN'
p2183
I36
sg40
g41
sg16
g176
sg17
F1.073
sg27
(lp2184
S'return'
p2185
asS'trials.thisRepN'
p2186
I0
sg42
g43
sg22
Nsg19
NsS'trials.thisTrialN'
p2187
I36
sg23
g321
sg21
Nsg18
Nsa(dp2188
g20
Nsg39
g11
sS'trials.thisIndex'
p2189
g35
(g60
S'"\x00\x00\x00'
tRp2190
sg25
Nsg1755
V./img/gray_JoachimLoew4_1.png
p2191
sg34
g38
sg24
F0.63900000000000001
sg1757
g35
(g63
S'#\x00\x00\x00\x00\x00\x00\x00'
tRp2192
sg32
g33
sg26
S''
sg28
(lp2193
F0.31712437832538853
asS'trials.thisN'
p2194
I37
sg40
g41
sg16
g176
sg17
F1.006
sg27
(lp2195
S'return'
p2196
asS'trials.thisRepN'
p2197
I0
sg42
g43
sg22
Nsg19
NsS'trials.thisTrialN'
p2198
I37
sg23
g132
sg21
Nsg18
Nsa(dp2199
g20
F0.55600000000000005
sg39
g11
sS'trials.thisIndex'
p2200
g35
(g60
S'\x0e\x00\x00\x00'
tRp2201
sg25
Nsg1755
V./img/gray_GeorgeClooney11_1.png
p2202
sg34
g38
sg24
Nsg1757
g35
(g63
S'\x0f\x00\x00\x00\x00\x00\x00\x00'
tRp2203
sg32
g33
sg26
S''
sg28
(lp2204
F0.55007679496156925
asS'trials.thisN'
p2205
I38
sg40
g41
sg16
g67
sg17
F1.4059999999999999
sg27
(lp2206
S'return'
p2207
asS'trials.thisRepN'
p2208
I0
sg42
g43
sg22
Nsg19
g71
sS'trials.thisTrialN'
p2209
I38
sg23
Nsg21
Nsg18
Nsa(dp2210
g20
Nsg39
g11
sS'trials.thisIndex'
p2211
g35
(g60
S"'\x00\x00\x00"
tRp2212
sg25
Nsg1755
V./img/gray_BritneySpears1_1.png
p2213
sg34
g38
sg24
Nsg1757
g35
(g63
S'(\x00\x00\x00\x00\x00\x00\x00'
tRp2214
sg32
g33
sg26
S''
sg28
(lp2215
F0.06698387626602198
asS'trials.thisN'
p2216
I39
sg40
g41
sg16
g67
sg17
F2.339
sg27
(lp2217
S'return'
p2218
asS'trials.thisRepN'
p2219
I0
sg42
g43
sg22
F0.67200000000000004
sg19
NsS'trials.thisTrialN'
p2220
I39
sg23
Nsg21
g120
sg18
Nsa(dp2221
g20
F3.5379999999999998
sg39
g11
sS'trials.thisIndex'
p2222
g35
(g60
S'\r\x00\x00\x00'
tRp2223
sg25
Nsg1755
V./img/gray_JoshRadnor(Ted)6_2.png
p2224
sg34
g38
sg24
Nsg1757
g35
(g63
S'\x0e\x00\x00\x00\x00\x00\x00\x00'
tRp2225
sg32
g33
sg26
S'ted mosbi'
p2226
sg28
(lp2227
F0.98327159369182482
aF1.2000014755922166
aF1.6162888722374191
aF1.9996888424684585
aF2.6827951056529855
aF2.9324823442166235
aF3.3156760522906552
aF3.698883553945052
aF3.9822479816466512
aF4.2321177445774083
asS'trials.thisN'
p2228
I40
sg40
g41
sg16
g67
sg17
F1.1060000000000001
sg27
(lp2229
S't'
aS'e'
aS'd'
aS'space'
p2230
aS'm'
aS'o'
aS's'
aS'b'
aS'i'
aS'return'
p2231
asS'trials.thisRepN'
p2232
I0
sg42
g43
sg22
Nsg19
g106
sS'trials.thisTrialN'
p2233
I40
sg23
Nsg21
Nsg18
Nsa(dp2234
g20
Nsg39
g11
sS'trials.thisIndex'
p2235
g35
(g60
S'\x01\x00\x00\x00'
tRp2236
sg25
Nsg1755
V./img/gray_BastianSchweinsteiger1_1.png
p2237
sg34
g38
sg24
F0.80600000000000005
sg1757
g35
(g63
S'\x02\x00\x00\x00\x00\x00\x00\x00'
tRp2238
sg32
g33
sg26
S''
sg28
(lp2239
F0.10037172097690927
asS'trials.thisN'
p2240
I41
sg40
g41
sg16
g176
sg17
F0.999
sg27
(lp2241
S'return'
p2242
asS'trials.thisRepN'
p2243
I0
sg42
g43
sg22
Nsg19
NsS'trials.thisTrialN'
p2244
I41
sg23
g321
sg21
Nsg18
Nsa(dp2245
g20
F0.40600000000000003
sg39
g11
sS'trials.thisIndex'
p2246
g35
(g60
S'(\x00\x00\x00'
tRp2247
sg25
Nsg1755
V./img/gray_RobertSeanLeonard(Wilson)1_1.png
p2248
sg34
g38
sg24
Nsg1757
g35
(g63
S')\x00\x00\x00\x00\x00\x00\x00'
tRp2249
sg32
g33
sg26
S''
sg28
(lp2250
F0.10039481720559706
asS'trials.thisN'
p2251
I42
sg40
g41
sg16
g67
sg17
F2.0720000000000001
sg27
(lp2252
S'return'
p2253
asS'trials.thisRepN'
p2254
I0
sg42
g43
sg22
Nsg19
g71
sS'trials.thisTrialN'
p2255
I42
sg23
Nsg21
Nsg18
Nsa(dp2256
g20
Nsg39
g11
sS'trials.thisIndex'
p2257
g35
(g60
S'C\x00\x00\x00'
tRp2258
sg25
Nsg1755
V./img/gray_Ice-T(OdafinFinTutuola)7_1.png
p2259
sg34
g38
sg24
Nsg1757
g35
(g63
S'D\x00\x00\x00\x00\x00\x00\x00'
tRp2260
sg32
g33
sg26
S''
sg28
(lp2261
F0.10043266936008877
asS'trials.thisN'
p2262
I43
sg40
g41
sg16
g176
sg17
F0.92200000000000004
sg27
(lp2263
S'return'
p2264
asS'trials.thisRepN'
p2265
I0
sg42
g43
sg22
F0.68899999999999995
sg19
NsS'trials.thisTrialN'
p2266
I43
sg23
Nsg21
g120
sg18
Nsa(dp2267
g20
F0.45600000000000002
sg39
g11
sS'trials.thisIndex'
p2268
g35
(g60
S'\x08\x00\x00\x00'
tRp2269
sg25
Nsg1755
V./img/gray_RobertSeanLeonard(Wilson)8_1.png
p2270
sg34
g38
sg24
Nsg1757
g35
(g63
S'\t\x00\x00\x00\x00\x00\x00\x00'
tRp2271
sg32
g33
sg26
S''
sg28
(lp2272
F0.2004813639105123
asS'trials.thisN'
p2273
I44
sg40
g41
sg16
g67
sg17
F1.323
sg27
(lp2274
S'return'
p2275
asS'trials.thisRepN'
p2276
I0
sg42
g43
sg22
Nsg19
g106
sS'trials.thisTrialN'
p2277
I44
sg23
Nsg21
Nsg18
Nsa(dp2278
g20
Nsg39
g11
sS'trials.thisIndex'
p2279
g35
(g60
S'@\x00\x00\x00'
tRp2280
sg25
Nsg1755
V./img/gray_KatjaBurkard5_3.png
p2281
sg34
g38
sg24
F0.72199999999999998
sg1757
g35
(g63
S'A\x00\x00\x00\x00\x00\x00\x00'
tRp2282
sg32
g33
sg26
S''
sg28
(lp2283
F0.083466243577277055
asS'trials.thisN'
p2284
I45
sg40
g41
sg16
g176
sg17
F0.873
sg27
(lp2285
S'return'
p2286
asS'trials.thisRepN'
p2287
I0
sg42
g43
sg22
Nsg19
NsS'trials.thisTrialN'
p2288
I45
sg23
g132
sg21
Nsg18
Nsa(dp2289
g20
Nsg39
g11
sS'trials.thisIndex'
p2290
g35
(g60
S'D\x00\x00\x00'
tRp2291
sg25
Nsg1755
V./img/gray_OmarEpps(DrEricForeman)3_1.png
p2292
sg34
g38
sg24
Nsg1757
g35
(g63
S'E\x00\x00\x00\x00\x00\x00\x00'
tRp2293
sg32
g33
sg26
S''
sg28
(lp2294
F0.1006074949818867
asS'trials.thisN'
p2295
I46
sg40
g41
sg16
g176
sg17
F1.1060000000000001
sg27
(lp2296
S'return'
p2297
asS'trials.thisRepN'
p2298
I0
sg42
g43
sg22
F0.60599999999999998
sg19
NsS'trials.thisTrialN'
p2299
I46
sg23
Nsg21
g120
sg18
Nsa(dp2300
g20
Nsg39
g11
sS'trials.thisIndex'
p2301
g35
(g60
S'\x1d\x00\x00\x00'
tRp2302
sg25
Nsg1755
V./img/gray_BarackObama4_1.png
p2303
sg34
g38
sg24
F0.48999999999999999
sg1757
g35
(g63
S'\x1e\x00\x00\x00\x00\x00\x00\x00'
tRp2304
sg32
g33
sg26
S'obama'
p2305
sg28
(lp2306
F0.53348119197107735
aF1.0998927950040525
aF1.4165510785951483
aF1.7829685839969898
aF2.1161692209389003
aF2.4825158337480389
asS'trials.thisN'
p2307
I47
sg40
g41
sg16
g67
sg17
F1.0389999999999999
sg27
(lp2308
S'o'
aS'b'
aS'a'
aS'm'
aS'a'
aS'return'
p2309
asS'trials.thisRepN'
p2310
I0
sg42
g43
sg22
Nsg19
NsS'trials.thisTrialN'
p2311
I47
sg23
g132
sg21
Nsg18
Nsa(dp2312
g20
F2.306
sg39
g11
sS'trials.thisIndex'
p2313
g35
(g60
S'9\x00\x00\x00'
tRp2314
sg25
Nsg1755
V./img/gray_GeorgeClooney3_1.png
p2315
sg34
g38
sg24
Nsg1757
g35
(g63
S':\x00\x00\x00\x00\x00\x00\x00'
tRp2316
sg32
g33
sg26
S''
sg28
(lp2317
F0.48364402038714616
asS'trials.thisN'
p2318
I48
sg40
g41
sg16
g67
sg17
F1.0900000000000001
sg27
(lp2319
S'return'
p2320
asS'trials.thisRepN'
p2321
I0
sg42
g43
sg22
Nsg19
g71
sS'trials.thisTrialN'
p2322
I48
sg23
Nsg21
Nsg18
Nsa(dp2323
g20
F0.40600000000000003
sg39
g11
sS'trials.thisIndex'
p2324
g35
(g60
S'*\x00\x00\x00'
tRp2325
sg25
Nsg1755
V./img/gray_LisaEdelstein(DrLisaCuddy)6_3.png
p2326
sg34
g38
sg24
Nsg1757
g35
(g63
S'+\x00\x00\x00\x00\x00\x00\x00'
tRp2327
sg32
g33
sg26
S''
sg28
(lp2328
F0.083699451335633057
asS'trials.thisN'
p2329
I49
sg40
g41
sg16
g67
sg17
F1.3720000000000001
sg27
(lp2330
S'return'
p2331
asS'trials.thisRepN'
p2332
I0
sg42
g43
sg22
Nsg19
g106
sS'trials.thisTrialN'
p2333
I49
sg23
Nsg21
Nsg18
Nsa(dp2334
g20
Nsg39
g11
sS'trials.thisIndex'
p2335
g35
(g60
S'\x15\x00\x00\x00'
tRp2336
sg25
Nsg1755
V./img/gray_GuentherJauch4_1.png
p2337
sg34
g38
sg24
F1.1559999999999999
sg1757
g35
(g63
S'\x16\x00\x00\x00\x00\x00\x00\x00'
tRp2338
sg32
g33
sg26
S''
sg28
(lp2339
F0.10031141415674938
asS'trials.thisN'
p2340
I50
sg40
g41
sg16
g176
sg17
F0.88900000000000001
sg27
(lp2341
S'return'
p2342
asS'trials.thisRepN'
p2343
I0
sg42
g43
sg22
Nsg19
NsS'trials.thisTrialN'
p2344
I50
sg23
g132
sg21
Nsg18
Nsa(dp2345
g20
F1.2709999999999999
sg39
g11
sS'trials.thisIndex'
p2346
g35
(g60
S'\x1a\x00\x00\x00'
tRp2347
sg25
Nsg1755
V./img/gray_LeonardoDiCaprio1_1.png
p2348
sg34
g38
sg24
Nsg1757
g35
(g63
S'\x1b\x00\x00\x00\x00\x00\x00\x00'
tRp2349
sg32
g33
sg26
S'leonardo'
p2350
sg28
(lp2351
F0.60029569588914455
aF1.0001087447453756
aF1.333191655076007
aF1.8664559991175338
aF2.3830150330777542
aF2.6328190359108703
aF2.8326954069289059
aF3.2991943265387818
aF3.8490959750961338
asS'trials.thisN'
p2352
I51
sg40
g41
sg16
g67
sg17
F1.256
sg27
(lp2353
S'l'
aS'e'
aS'o'
aS'n'
aS'a'
aS'r'
aS'd'
aS'o'
aS'return'
p2354
asS'trials.thisRepN'
p2355
I0
sg42
g43
sg22
Nsg19
g71
sS'trials.thisTrialN'
p2356
I51
sg23
Nsg21
Nsg18
Nsa(dp2357
g20
Nsg39
g11
sS'trials.thisIndex'
p2358
g35
(g60
S',\x00\x00\x00'
tRp2359
sg25
Nsg1755
V./img/gray_NicoleKidman7_1.png
p2360
sg34
g38
sg24
Nsg1757
g35
(g63
S'-\x00\x00\x00\x00\x00\x00\x00'
tRp2361
sg32
g33
sg26
S''
sg28
(lp2362
F0.15040873910038499
asS'trials.thisN'
p2363
I52
sg40
g41
sg16
g176
sg17
F0.98999999999999999
sg27
(lp2364
S'return'
p2365
asS'trials.thisRepN'
p2366
I0
sg42
g43
sg22
F0.98899999999999999
sg19
NsS'trials.thisTrialN'
p2367
I52
sg23
Nsg21
g120
sg18
Nsa(dp2368
g20
F1.389
sg39
g11
sS'trials.thisIndex'
p2369
g35
(g60
S'>\x00\x00\x00'
tRp2370
sg25
Nsg1755
V./img/gray_JoshRadnor(Ted)3_1.png
p2371
sg34
g38
sg24
Nsg1757
g35
(g63
S'?\x00\x00\x00\x00\x00\x00\x00'
tRp2372
sg32
g33
sg26
S'mosbi'
p2373
sg28
(lp2374
F0.63355426587440888
aF0.86646049005139503
aF2.0330025867788208
aF2.3162252292950143
aF2.6326955352433288
aF2.8989552805687708
asS'trials.thisN'
p2375
I53
sg40
g41
sg16
g67
sg17
F1.3049999999999999
sg27
(lp2376
S'm'
aS'o'
aS's'
aS'b'
aS'i'
aS'return'
p2377
asS'trials.thisRepN'
p2378
I0
sg42
g43
sg22
Nsg19
g71
sS'trials.thisTrialN'
p2379
I53
sg23
Nsg21
Nsg18
Nsa(dp2380
g20
F0.41699999999999998
sg39
g11
sS'trials.thisIndex'
p2381
g35
(g60
S'\x16\x00\x00\x00'
tRp2382
sg25
Nsg1755
V./img/gray_TomCruise4_1.png
p2383
sg34
g38
sg24
Nsg1757
g35
(g63
S'\x17\x00\x00\x00\x00\x00\x00\x00'
tRp2384
sg32
g33
sg26
S''
sg28
(lp2385
F6.131422676391594
asS'trials.thisN'
p2386
I54
sg40
g41
sg16
g67
sg17
F5.3710000000000004
sg27
(lp2387
S'return'
p2388
asS'trials.thisRepN'
p2389
I0
sg42
g43
sg22
Nsg19
g71
sS'trials.thisTrialN'
p2390
I54
sg23
Nsg21
Nsg18
Nsa(dp2391
g20
Nsg39
g11
sS'trials.thisIndex'
p2392
g35
(g60
S'B\x00\x00\x00'
tRp2393
sg25
Nsg1755
V./img/gray_AngelaMerkel4_1.png
p2394
sg34
g38
sg24
F0.92200000000000004
sg1757
g35
(g63
S'C\x00\x00\x00\x00\x00\x00\x00'
tRp2395
sg32
g33
sg26
S'merkel'
p2396
sg28
(lp2397
F0.50028677817863354
aF0.90041258847122663
aF1.0335668404859462
aF1.3335457972552831
aF1.6501277349780139
aF1.9664517648070614
aF2.2160350703397853
asS'trials.thisN'
p2398
I55
sg40
g41
sg16
g67
sg17
F1.6339999999999999
sg27
(lp2399
S'm'
aS'e'
aS'r'
aS'k'
aS'e'
aS'l'
aS'return'
p2400
asS'trials.thisRepN'
p2401
I0
sg42
g43
sg22
Nsg19
NsS'trials.thisTrialN'
p2402
I55
sg23
g132
sg21
Nsg18
Nsa(dp2403
g20
Nsg39
g11
sS'trials.thisIndex'
p2404
g35
(g60
S'\x1b\x00\x00\x00'
tRp2405
sg25
Nsg1755
V./img/gray_GeorgeClooney4_2.png
p2406
sg34
g38
sg24
Nsg1757
g35
(g63
S'\x1c\x00\x00\x00\x00\x00\x00\x00'
tRp2407
sg32
g33
sg26
S''
sg28
(lp2408
F0.083543551789261983
asS'trials.thisN'
p2409
I56
sg40
g41
sg16
g67
sg17
F1.1559999999999999
sg27
(lp2410
S'return'
p2411
asS'trials.thisRepN'
p2412
I0
sg42
g43
sg22
F0.85599999999999998
sg19
NsS'trials.thisTrialN'
p2413
I56
sg23
Nsg21
g181
sg18
Nsa(dp2414
g20
Nsg39
g11
sS'trials.thisIndex'
p2415
g35
(g60
S'F\x00\x00\x00'
tRp2416
sg25
Nsg1755
V./img/gray_BritneySpears7_1.png
p2417
sg34
g38
sg24
Nsg1757
g35
(g63
S'G\x00\x00\x00\x00\x00\x00\x00'
tRp2418
sg32
g33
sg26
S'spirs'
p2419
sg28
(lp2420
F0.4503225773351005
aF1.0001597489190317
aF1.5158565236579307
aF1.9998287029666244
aF2.3495867699675728
aF2.9159313297786866
asS'trials.thisN'
p2421
I57
sg40
g41
sg16
g67
sg17
F2.4390000000000001
sg27
(lp2422
S's'
aS'p'
aS'i'
aS'r'
aS's'
aS'return'
p2423
asS'trials.thisRepN'
p2424
I0
sg42
g43
sg22
F2.222
sg19
NsS'trials.thisTrialN'
p2425
I57
sg23
Nsg21
g120
sg18
Nsa(dp2426
g20
Nsg39
g11
sS'trials.thisIndex'
p2427
g35
(g60
S'%\x00\x00\x00'
tRp2428
sg25
Nsg1755
V./img/gray_MariskaHargitay(Liv)4_4.png
p2429
sg34
g38
sg24
Nsg1757
g35
(g63
S'&\x00\x00\x00\x00\x00\x00\x00'
tRp2430
sg32
g33
sg26
S''
sg28
(lp2431
F0.117045594523006
asS'trials.thisN'
p2432
I58
sg40
g41
sg16
g176
sg17
F1.323
sg27
(lp2433
S'return'
p2434
asS'trials.thisRepN'
p2435
I0
sg42
g43
sg22
F1.0389999999999999
sg19
NsS'trials.thisTrialN'
p2436
I58
sg23
Nsg21
g120
sg18
Nsa(dp2437
g20
F3.0049999999999999
sg39
g11
sS'trials.thisIndex'
p2438
g35
(g60
S'E\x00\x00\x00'
tRp2439
sg25
Nsg1755
V./img/gray_WillSmith5_1.png
p2440
sg34
g38
sg24
Nsg1757
g35
(g63
S'F\x00\x00\x00\x00\x00\x00\x00'
tRp2441
sg32
g33
sg26
S'comedien'
p2442
sg28
(lp2443
F1.3167041552678711
aF1.8332506787719467
aF2.2996610628360941
aF2.6496590739952808
aF2.8996520168129791
aF3.4160477732657455
aF3.5823101489950204
aF3.8324923525815393
aF4.1656429476934136
aF4.4654666464775801
aF4.981713560564458
aF5.4486551579011575
aF5.731644592658995
asS'trials.thisN'
p2444
I59
sg40
g41
sg16
g176
sg17
F1.0069999999999999
sg27
(lp2445
S'v'
aS'backspace'
p2446
aS'c'
aS'o'
aS'm'
aS'e'
aS'd'
aS'i'
aS'e'
aS'm'
aS'backspace'
p2447
aS'n'
aS'return'
p2448
asS'trials.thisRepN'
p2449
I0
sg42
g43
sg22
Nsg19
g71
sS'trials.thisTrialN'
p2450
I59
sg23
Nsg21
Nsg18
Nsa(dp2451
g20
Nsg39
g11
sS'trials.thisIndex'
p2452
g35
(g60
S'\x05\x00\x00\x00'
tRp2453
sg25
Nsg1755
V./img/gray_NicoleKidman3_1.png
p2454
sg34
g38
sg24
F0.57299999999999995
sg1757
g35
(g63
S'\x06\x00\x00\x00\x00\x00\x00\x00'
tRp2455
sg32
g33
sg26
S''
sg28
(lp2456
F0.18387100499421649
asS'trials.thisN'
p2457
I60
sg40
g41
sg16
g176
sg17
F1.216
sg27
(lp2458
S'return'
p2459
asS'trials.thisRepN'
p2460
I0
sg42
g43
sg22
Nsg19
NsS'trials.thisTrialN'
p2461
I60
sg23
g321
sg21
Nsg18
Nsa(dp2462
g20
F0.75600000000000001
sg39
g11
sS'trials.thisIndex'
p2463
g35
(g60
S'.\x00\x00\x00'
tRp2464
sg25
Nsg1755
V./img/gray_HughLaurie(DrHouse)5_3.png
p2465
sg34
g38
sg24
Nsg1757
g35
(g63
S'/\x00\x00\x00\x00\x00\x00\x00'
tRp2466
sg32
g33
sg26
S'chyu lori'
p2467
sg28
(lp2468
F1.8829483106401312
aF2.0660837648902088
aF2.449513246971037
aF2.7658578067821509
aF3.115868969960502
aF3.4490660783121712
aF3.6156213270587614
aF4.815118214199174
aF5.0649892602541513
aF5.3483344410979043
asS'trials.thisN'
p2469
I61
sg40
g41
sg16
g67
sg17
F1.0880000000000001
sg27
(lp2470
S'c'
aS'h'
aS'y'
aS'u'
aS'space'
p2471
aS'l'
aS'o'
aS'r'
aS'i'
aS'return'
p2472
asS'trials.thisRepN'
p2473
I0
sg42
g43
sg22
Nsg19
g106
sS'trials.thisTrialN'
p2474
I61
sg23
Nsg21
Nsg18
Nsa(dp2475
g20
Nsg39
g11
sS'trials.thisIndex'
p2476
g35
(g60
S'\x19\x00\x00\x00'
tRp2477
sg25
Nsg1755
V./img/gray_BarackObama1_3.png
p2478
sg34
g38
sg24
F0.621
sg1757
g35
(g63
S'\x1a\x00\x00\x00\x00\x00\x00\x00'
tRp2479
sg32
g33
sg26
S'obama'
p2480
sg28
(lp2481
F0.48328121711892891
aF1.1832368210343702
aF1.6164152599340014
aF1.9329295128736703
aF2.2996020391401544
aF2.7159301749670703
asS'trials.thisN'
p2482
I62
sg40
g41
sg16
g67
sg17
F0.96699999999999997
sg27
(lp2483
S'o'
aS'b'
aS'a'
aS'm'
aS'a'
aS'return'
p2484
asS'trials.thisRepN'
p2485
I0
sg42
g43
sg22
Nsg19
NsS'trials.thisTrialN'
p2486
I62
sg23
g132
sg21
Nsg18
Nsa(dp2487
g20
F1.472
sg39
g11
sS'trials.thisIndex'
p2488
g35
(g60
S'5\x00\x00\x00'
tRp2489
sg25
Nsg1755
V./img/gray_LeonardoDiCaprio3_1.png
p2490
sg34
g38
sg24
Nsg1757
g35
(g63
S'6\x00\x00\x00\x00\x00\x00\x00'
tRp2491
sg32
g33
sg26
S'leonardo'
p2492
sg28
(lp2493
F0.80002290376069141
aF1.5999290432519047
aF1.9161600466031814
aF2.4995451325994509
aF2.9326035994199628
aF3.1489543182251509
aF3.3492265329496149
aF3.6488487812894164
aF3.9154305906995432
asS'trials.thisN'
p2494
I63
sg40
g41
sg16
g67
sg17
F2.0219999999999998
sg27
(lp2495
S'l'
aS'e'
aS'o'
aS'n'
aS'a'
aS'r'
aS'd'
aS'o'
aS'return'
p2496
asS'trials.thisRepN'
p2497
I0
sg42
g43
sg22
Nsg19
g71
sS'trials.thisTrialN'
p2498
I63
sg23
Nsg21
Nsg18
Nsa(dp2499
g20
Nsg39
g11
sS'trials.thisIndex'
p2500
g35
(g60
S'7\x00\x00\x00'
tRp2501
sg25
Nsg1755
V./img/gray_GuentherJauch2_1.png
p2502
sg34
g38
sg24
F0.67200000000000004
sg1757
g35
(g63
S'8\x00\x00\x00\x00\x00\x00\x00'
tRp2503
sg32
g33
sg26
S''
sg28
(lp2504
F0.16674354717179085
asS'trials.thisN'
p2505
I64
sg40
g41
sg16
g176
sg17
F1.0069999999999999
sg27
(lp2506
S'return'
p2507
asS'trials.thisRepN'
p2508
I0
sg42
g43
sg22
Nsg19
NsS'trials.thisTrialN'
p2509
I64
sg23
g132
sg21
Nsg18
Nsa(dp2510
g20
Nsg39
g11
sS'trials.thisIndex'
p2511
g35
(g60
S'\x17\x00\x00\x00'
tRp2512
sg25
Nsg1755
V./img/gray_JoachimLoew1_1.png
p2513
sg34
g38
sg24
F0.90600000000000003
sg1757
g35
(g63
S'\x18\x00\x00\x00\x00\x00\x00\x00'
tRp2514
sg32
g33
sg26
S''
sg28
(lp2515
F0.083434165480866795
asS'trials.thisN'
p2516
I65
sg40
g41
sg16
g176
sg17
F1.089
sg27
(lp2517
S'return'
p2518
asS'trials.thisRepN'
p2519
I0
sg42
g43
sg22
Nsg19
NsS'trials.thisTrialN'
p2520
I65
sg23
g132
sg21
Nsg18
Nsa(dp2521
g20
Nsg39
g11
sS'trials.thisIndex'
p2522
g35
(g60
S'\x18\x00\x00\x00'
tRp2523
sg25
Nsg1755
V./img/gray_MariskaHargitay(Liv)8_8.png
p2524
sg34
g38
sg24
Nsg1757
g35
(g63
S'\x19\x00\x00\x00\x00\x00\x00\x00'
tRp2525
sg32
g33
sg26
S''
sg28
(lp2526
F0.13379741784228827
asS'trials.thisN'
p2527
I66
sg40
g41
sg16
g176
sg17
F1.323
sg27
(lp2528
S'return'
p2529
asS'trials.thisRepN'
p2530
I0
sg42
g43
sg22
F0.60599999999999998
sg19
NsS'trials.thisTrialN'
p2531
I66
sg23
Nsg21
g120
sg18
Nsa(dp2532
g20
Nsg39
g11
sS'trials.thisIndex'
p2533
g35
(g60
S'\x02\x00\x00\x00'
tRp2534
sg25
Nsg1755
V./img/gray_KatjaBurkard1_1.png
p2535
sg34
g38
sg24
F0.623
sg1757
g35
(g63
S'\x03\x00\x00\x00\x00\x00\x00\x00'
tRp2536
sg32
g33
sg26
S''
sg28
(lp2537
F0.083556703808426391
asS'trials.thisN'
p2538
I67
sg40
g41
sg16
g176
sg17
F0.93799999999999994
sg27
(lp2539
S'return'
p2540
asS'trials.thisRepN'
p2541
I0
sg42
g43
sg22
Nsg19
NsS'trials.thisTrialN'
p2542
I67
sg23
g132
sg21
Nsg18
Nsa(dp2543
g20
F0.68899999999999995
sg39
g11
sS'trials.thisIndex'
p2544
g35
(g60
S'+\x00\x00\x00'
tRp2545
sg25
Nsg1755
V./img/gray_BritneySpears5_1.png
p2546
sg34
g38
sg24
Nsg1757
g35
(g63
S',\x00\x00\x00\x00\x00\x00\x00'
tRp2547
sg32
g33
sg26
S'spirs'
p2548
sg28
(lp2549
F1.0000150767045852
aF1.5662441553704411
aF1.7662950312314933
aF2.382707404138273
aF2.6159658458091144
aF2.9494009736336011
asS'trials.thisN'
p2550
I68
sg40
g41
sg16
g67
sg17
F1.2889999999999999
sg27
(lp2551
S's'
aS'p'
aS'i'
aS'r'
aS's'
aS'return'
p2552
asS'trials.thisRepN'
p2553
I0
sg42
g43
sg22
Nsg19
g106
sS'trials.thisTrialN'
p2554
I68
sg23
Nsg21
Nsg18
Nsa(dp2555
g20
F0.44
sg39
g11
sS'trials.thisIndex'
p2556
g35
(g60
S'=\x00\x00\x00'
tRp2557
sg25
Nsg1755
V./img/gray_LisaEdelstein(DrLisaCuddy)1_1.png
p2558
sg34
g38
sg24
Nsg1757
g35
(g63
S'>\x00\x00\x00\x00\x00\x00\x00'
tRp2559
sg32
g33
sg26
S''
sg28
(lp2560
F0.91638555561803514
asS'trials.thisN'
p2561
I69
sg40
g41
sg16
g67
sg17
F1.1220000000000001
sg27
(lp2562
S'return'
p2563
asS'trials.thisRepN'
p2564
I0
sg42
g43
sg22
Nsg19
g106
sS'trials.thisTrialN'
p2565
I69
sg23
Nsg21
Nsg18
Nsa(dp2566
g20
Nsg39
g11
sS'trials.thisIndex'
p2567
g35
(g60
S')\x00\x00\x00'
tRp2568
sg25
Nsg1755
V./img/gray_NicoleKidman5_1.png
p2569
sg34
g38
sg24
F0.67300000000000004
sg1757
g35
(g63
S'*\x00\x00\x00\x00\x00\x00\x00'
tRp2570
sg32
g33
sg26
S''
sg28
(lp2571
F0.083827122160073486
asS'trials.thisN'
p2572
I70
sg40
g41
sg16
g176
sg17
F1.1559999999999999
sg27
(lp2573
S'return'
p2574
asS'trials.thisRepN'
p2575
I0
sg42
g43
sg22
Nsg19
NsS'trials.thisTrialN'
p2576
I70
sg23
g321
sg21
Nsg18
Nsa(dp2577
g20
Nsg39
g11
sS'trials.thisIndex'
p2578
g35
(g60
S'\x1f\x00\x00\x00'
tRp2579
sg25
Nsg1755
V./img/gray_MariskaHargitay(Liv)6_5.png
p2580
sg34
g38
sg24
F0.58899999999999997
sg1757
g35
(g63
S' \x00\x00\x00\x00\x00\x00\x00'
tRp2581
sg32
g33
sg26
S''
sg28
(lp2582
F0.10013979634277348
asS'trials.thisN'
p2583
I71
sg40
g41
sg16
g176
sg17
F1.089
sg27
(lp2584
S'return'
p2585
asS'trials.thisRepN'
p2586
I0
sg42
g43
sg22
Nsg19
NsS'trials.thisTrialN'
p2587
I71
sg23
g132
sg21
Nsg18
NsasS'loops'
p2588
(lp2589
g1
(cpsychopy.data
TrialHandler
p2590
g3
NtRp2591
(dp2592
S'origin'
p2593
NsS'thisTrial'
p2594
(lp2595
sS'_exp'
p2596
I357510768
sg10
S'trials'
p2597
sg6
I-1
sS'thisRepN'
p2598
I1
sg29
I01
sg30
g31
sS'data'
p2599
g1
(cpsychopy.data
DataHandler
p2600
c__builtin__
dict
p2601
(dp2602
g16
cnumpy.core.multiarray
_reconstruct
p2603
(cnumpy
ndarray
p2604
(I0
tS'b'
tRp2605
(I1
(I72
I1
tg36
(S'O4'
I0
I1
tRp2606
(I3
S'|'
NNNI-1
I-1
I63
tbI00
(lp2607
g176
ag67
ag67
ag176
ag67
ag67
ag67
ag67
ag176
ag176
ag67
ag176
ag67
ag67
ag67
ag67
ag67
ag67
ag176
ag176
ag67
ag67
ag176
ag176
ag176
ag67
ag67
ag67
ag176
ag176
ag67
ag67
ag176
ag176
ag176
ag176
ag176
ag67
ag67
ag67
ag67
ag67
ag176
ag176
ag67
ag67
ag67
ag67
ag67
ag67
ag67
ag67
ag176
ag176
ag176
ag176
ag176
ag176
ag67
ag67
ag67
ag67
ag67
ag176
ag176
ag176
ag67
ag67
ag67
ag67
ag67
ag67
atbsg20
g2603
(g2604
(I0
tS'b'
tRp2608
(I1
(I72
I1
tg2606
I00
(lp2609
NaNaF1.052
aNaNaS'5.54899978638'
p2610
aNaNaNaNaF1.7070000000000001
aNaF9.9359999999999999
aF1.1559999999999999
aNaF15.769
aF1.2410000000000001
aF0.73399999999999999
aNaNaF4.5549999999999997
aNaNaNaNaF0.80200000000000005
aF15.701000000000001
aF3.0899999999999999
aNaNaNaF1.1240000000000001
aNaNaNaNaNaNaNaF1.036
aNaNaNaNaS'0.458000004292'
p2611
aF5.3390000000000004
aNaNaF0.45200000000000001
aNaF1.8069999999999999
aNaNaNaNaNaNaNaF0.72399999999999998
aS'1.26900005341'
p2612
aNaF0.57399999999999995
aF0.753
aNaNaNaNaNaNaF0.79000000000000004
aNaF2.7389999999999999
atbsg17
cnumpy.ma.core
_mareconstruct
p2613
(cnumpy.ma.core
MaskedArray
p2614
g2604
(I0
tp2615
S'b'
tRp2616
(I1
(I72
I1
tg36
(S'f4'
I0
I1
tRp2617
(I3
S'<'
NNNI-1
I-1
I0
tbI00
S'%\x06\xa1?\xa2E\x96?X9\x06Ao\x12\xc3?\x17\xd9\xbe?1\x08@A\x8bl/@\xd5x\x89?\xb0r\x98?P\x8d\x97?o\x12\xa3?\xecQ\xd8?\x17\xd96@ff\xd6?7\x89\x11@\xc3\xf58@\xd1"\x0b@\xe3\xa5\x9f@`\xe5\xa0?%\x06\x81?{\x14\xbe?\x08\xac$@\x93\x18\xb4?\xc3\xf58@%\x06\t@;\xdf\x0bA\xb6\xf3\xbd?o\x12\xa3?\x8bl\xa7?D\x8b\xbc?\xd9\xce]ANb@@\x91\xedL@\xaa\xf1\xa2?J\x0c\xb2?\xfe\xd4\xa8?`\xe5\xa0?\x98n\x86@\xcd\xcc\x9c?9\xb4\xc0@\x08\xac\x9c?%\x06\xe1?\xbe\x9f\xe2@\xe3\xa5\xab?\xd5x\xa9?`\xe5\xe0?u\x93\x98?\xb4\xc8&@\xb8\x1e\xd2Ao\x12\xc3?\x8f\xc2e@\xcd\xcc\x1c@\x08\xac\x9c?B`\xa5?ff\xd6?\xb4\xc8F@\xf2\xd2\xad?\xecQ\xf8?\xa6\x9b\xe4?\xaeG\x99@\xf4\xfd\x9c@m\xe7\xbb?!\xb0vA\xcb\xa1\x95?\xb0r\xb8?\x17\xd9\x06@\x14\xae\xf7?\xe3\xa5\x03@\x08\xac\xfc?o\x12K@\xb8\x1e\xa5?}?\x85?'
S'\x00\x00\x00\x00\x00\x00\x00\x00\x00\x00\x00\x00\x00\x00\x00\x00\x00\x00\x00\x00\x00\x00\x00\x00\x00\x00\x00\x00\x00\x00\x00\x00\x00\x00\x00\x00\x00\x00\x00\x00\x00\x00\x00\x00\x00\x00\x00\x00\x00\x00\x00\x00\x00\x00\x00\x00\x00\x00\x00\x00\x00\x00\x00\x00\x00\x00\x00\x00\x00\x00\x00\x00'
NtbsS'ran'
p2618
g2613
(g2614
g2604
g2615
S'b'
tRp2619
(I1
(I72
I1
tg2617
I00
S'\x00\x00\x80?\x00\x00\x80?\x00\x00\x80?\x00\x00\x80?\x00\x00\x80?\x00\x00\x80?\x00\x00\x80?\x00\x00\x80?\x00\x00\x80?\x00\x00\x80?\x00\x00\x80?\x00\x00\x80?\x00\x00\x80?\x00\x00\x80?\x00\x00\x80?\x00\x00\x80?\x00\x00\x80?\x00\x00\x80?\x00\x00\x80?\x00\x00\x80?\x00\x00\x80?\x00\x00\x80?\x00\x00\x80?\x00\x00\x80?\x00\x00\x80?\x00\x00\x80?\x00\x00\x80?\x00\x00\x80?\x00\x00\x80?\x00\x00\x80?\x00\x00\x80?\x00\x00\x80?\x00\x00\x80?\x00\x00\x80?\x00\x00\x80?\x00\x00\x80?\x00\x00\x80?\x00\x00\x80?\x00\x00\x80?\x00\x00\x80?\x00\x00\x80?\x00\x00\x80?\x00\x00\x80?\x00\x00\x80?\x00\x00\x80?\x00\x00\x80?\x00\x00\x80?\x00\x00\x80?\x00\x00\x80?\x00\x00\x80?\x00\x00\x80?\x00\x00\x80?\x00\x00\x80?\x00\x00\x80?\x00\x00\x80?\x00\x00\x80?\x00\x00\x80?\x00\x00\x80?\x00\x00\x80?\x00\x00\x80?\x00\x00\x80?\x00\x00\x80?\x00\x00\x80?\x00\x00\x80?\x00\x00\x80?\x00\x00\x80?\x00\x00\x80?\x00\x00\x80?\x00\x00\x80?\x00\x00\x80?\x00\x00\x80?\x00\x00\x80?'
S'\x00\x00\x00\x00\x00\x00\x00\x00\x00\x00\x00\x00\x00\x00\x00\x00\x00\x00\x00\x00\x00\x00\x00\x00\x00\x00\x00\x00\x00\x00\x00\x00\x00\x00\x00\x00\x00\x00\x00\x00\x00\x00\x00\x00\x00\x00\x00\x00\x00\x00\x00\x00\x00\x00\x00\x00\x00\x00\x00\x00\x00\x00\x00\x00\x00\x00\x00\x00\x00\x00\x00\x00'
Ntbsg25
g2603
(g2604
(I0
tS'b'
tRp2620
(I1
(I72
I1
tg2606
I00
(lp2621
NaNaNaNaNaNaNaNaNaNaNaNaNaNaNaNaNaNaNaNaNaNaNaNaNaNaNaNaNaNaNaNaNaNaNaNaNaNaNaNaNaNaNaNaNaNaNaNaNaNaNaNaNaNaNaNaNaNaNaNaNaNaNaNaNaNaNaNaNaNaNaNatbsg22
g2603
(g2604
(I0
tS'b'
tRp2622
(I1
(I72
I1
tg2606
I00
(lp2623
NaF1.2569999999999999
aNaNaNaNaF0.54000000000000004
aNaF0.54100000000000004
aNaNaNaNaNaF0.59099999999999997
aNaNaNaF6.4390000000000001
aNaNaF4.9889999999999999
aNaNaNaNaNaNaNaF0.84099999999999997
aF0.98599999999999999
aNaNaF0.58999999999999997
aF0.65600000000000003
aNaNaF31.173999999999999
aNaNaNaF2.5739999999999998
aNaNaNaNaNaF1.6559999999999999
aNaF1.2410000000000001
aNaNaNaNaF0.75700000000000001
aF3.7719999999999998
aNaF1.0569999999999999
aNaNaF0.95199999999999996
aNaNaNaF0.95799999999999996
aNaF2.0070000000000001
aF1.024
aF1.4079999999999999
aNaNaNatbsg27
g2603
(g2604
(I0
tS'b'
tRp2624
(I1
(I72
I1
tg2606
I00
(lp2625
(lp2626
S'b'
aS'o'
aS'k'
aS's'
ag726
aa(lp2627
g422
aa(lp2628
S'd'
aS'g'
aS'o'
aS's'
aS'c'
aS'h'
ag760
aS'r'
aS'e'
aS'd'
aS'n'
aS'o'
aS'r'
ag761
aa(lp2629
g546
aa(lp2630
S'o'
aS'b'
aS'a'
aS'm'
aS'a'
ag839
aa(lp2631
g69
aa(lp2632
g714
aa(lp2633
S'm'
aS'e'
aS'r'
aS'k'
aS'e'
aS'l'
ag434
aa(lp2634
g816
aa(lp2635
g895
aa(lp2636
S'l'
aS'e'
aS'o'
aS'n'
aS'a'
aS'r'
aS'd'
aS'i'
ag558
aS'o'
ag559
aS'd'
aS'i'
ag560
aS'k'
aS'a'
aS'p'
aS'r'
aS'i'
aS'o'
ag561
aa(lp2637
g389
aa(lp2638
g260
aa(lp2639
S'b'
aS'r'
aS'i'
aS't'
aS'n'
aS'e'
aS'y'
ag884
aa(lp2640
g805
aa(lp2641
g141
aa(lp2642
g632
aa(lp2643
g457
aa(lp2644
g850
aa(lp2645
g872
aa(lp2646
S'n'
aS'i'
aS'l'
ag573
aS'p'
aS'a'
aS't'
aS'r'
aS'i'
aS'k'
ag574
aS'h'
aS'a'
aS'r'
aS'r'
aS'i'
aS's'
ag575
aa(lp2647
g535
aa(lp2648
g201
aa(lp2649
g827
aa(lp2650
g621
aa(lp2651
g343
aa(lp2652
S'd'
aS'g'
aS'e'
aS'i'
aS's'
aS'o'
aS'n'
ag587
aS's'
aS'i'
aS'g'
aS'e'
aS'l'
ag588
aa(lp2653
S'c'
aS'h'
aS'y'
aS'u'
ag331
aS'l'
aS'o'
aS'r'
aS'i'
ag332
aa(lp2654
g249
aa(lp2655
g468
aa(lp2656
S'b'
aS'r'
aS'i'
aS't'
aS'n'
aS'e'
aS'y'
ag117
aa(lp2657
g400
aa(lp2658
g599
aa(lp2659
g794
aa(lp2660
g703
aa(lp2661
g378
aa(lp2662
g656
aa(lp2663
g166
aa(lp2664
S'o'
aS'b'
aS'a'
aS'm'
aS'a'
ag213
aa(lp2665
S'n'
aS'i'
aS'l'
ag679
aS'p'
aS'a'
aS't'
aS'r'
aS'i'
aS'k'
ag680
aS'h'
aS'a'
aS'r'
aS'r'
aS'i'
aS's'
ag681
aa(lp2666
S'm'
aS'e'
aS'r'
aS'k'
aS'e'
aS'l'
ag272
aa(lp2667
g190
aa(lp2668
g307
aa(lp2669
g610
aa(lp2670
g81
aa(lp2671
S'n'
aS'i'
aS'l'
ag153
aS'p'
aS'a'
aS't'
aS'r'
aS'i'
aS'k'
ag154
aS'h'
aS'a'
aS'r'
aS'r'
aS'i'
aS's'
ag155
aa(lp2672
S'o'
aS'b'
aS'a'
aS'm'
aS'a'
ag513
aa(lp2673
g283
aa(lp2674
g490
aa(lp2675
g479
aa(lp2676
S'l'
aS'e'
aS'o'
aS'n'
aS'a'
aS'r'
aS'd'
aS'o'
ag225
aS'd'
aS'i'
ag226
aS'k'
aS'a'
aS'p'
aS'r'
aS'i'
aS'o'
ag227
aa(lp2677
g129
aa(lp2678
g737
aa(lp2679
g318
aa(lp2680
g524
aa(lp2681
g178
aa(lp2682
g861
aa(lp2683
g783
aa(lp2684
g692
aa(lp2685
S'b'
aS'r'
aS'e'
aS'd'
ag93
aS'p'
aS'i'
aS't'
ag94
ag95
ag96
ag97
ag98
ag99
ag100
ag101
aS'l'
aS'e'
aS'o'
aS'n'
aS'a'
aS'r'
aS'd'
aS'o'
ag102
aS'd'
aS'i'
ag103
aS'k'
aS'a'
aS'p'
aS'r'
aS'i'
aS'o'
ag104
aa(lp2686
g748
aa(lp2687
g501
aa(lp2688
S't'
aS'e'
aS'd'
ag295
aS'm'
aS'o'
aS's'
aS'b'
aS'i'
ag296
aa(lp2689
g238
aa(lp2690
g667
aa(lp2691
g354
aa(lp2692
g772
aa(lp2693
S's'
aS't'
aS'i'
aS'r'
aS'l'
aS'i'
aS'n'
aS'g'
ag907
aa(lp2694
S'b'
aS'r'
aS'i'
aS't'
aS'm'
ag366
aS'n'
aS'e'
aS'y'
ag367
aa(lp2695
g411
aa(lp2696
S'm'
aS'e'
aS'r'
aS'k'
aS'e'
aS'l'
ag446
aa(lp2697
S'c'
aS'h'
aS'y'
aS'u'
ag644
aS'l'
aS'o'
aS'r'
aS'i'
ag645
aatbsg19
g2603
(g2604
(I0
tS'b'
tRp2698
(I1
(I72
I1
tg2606
I00
(lp2699
NaNag106
aNaNag71
aNaNaNaNag71
aNag71
ag71
aNag71
ag71
ag71
aNaNag106
aNaNaNaNag71
ag71
ag71
aNaNaNag106
aNaNaNaNaNaNaNag71
aNaNaNaNag71
ag71
aNaNag71
aNag71
aNaNaNaNaNaNaNag71
ag106
aNag71
ag71
aNaNaNaNaNaNag71
aNag71
atbsg23
g2603
(g2604
(I0
tS'b'
tRp2700
(I1
(I72
I1
tg2606
I00
(lp2701
g321
aNaNag132
ag132
aNaNag132
aNag132
aNag321
aNaNaNaNaNaNaNag321
aNaNag132
ag132
ag321
aNaNaNag132
aNaNaNag132
aNaNag132
ag132
aNag132
aNag132
aNag132
ag132
aNaNag132
aNaNaNaNag132
ag132
ag321
aNaNag132
aNaNaNaNaNaNag132
aNag321
aNaNaNaNag132
aNatbsg21
g2603
(g2604
(I0
tS'b'
tRp2702
(I1
(I72
I1
tg2606
I00
(lp2703
Nag120
aNaNaNaNag120
aNag120
aNaNaNaNaNag120
aNaNaNag181
aNaNag120
aNaNaNaNaNaNaNag120
ag120
aNaNag120
ag120
aNaNag120
aNaNaNag120
aNaNaNaNaNag120
aNag120
aNaNaNaNag120
ag181
aNag120
aNaNag120
aNaNaNag181
aNag181
ag120
ag120
aNaNaNatbsg24
g2603
(g2604
(I0
tS'b'
tRp2704
(I1
(I72
I1
tg2606
I00
(lp2705
F1.456
aNaNaF1.79
aF0.625
aNaNaF0.876
aNaF5.4379999999999997
aNaF1.3240000000000001
aNaNaNaNaNaNaNaF0.77400000000000002
aNaNaF0.75700000000000001
aF0.872
aF0.70699999999999996
aNaNaNaF0.64000000000000001
aNaNaNaF6.1219999999999999
aNaNaF1.673
aF1.74
aNaF1.1240000000000001
aNaF0.67400000000000004
aNaF0.88500000000000001
aF1.54
aNaNaF0.94099999999999995
aNaNaNaNaF0.85799999999999998
aF1.8899999999999999
aF0.82399999999999995
aNaNaF0.874
aNaNaNaNaNaNaF0.95599999999999996
aNaF2.391
aNaNaNaNaF0.624
aNatbsg28
g2603
(g2604
(I0
tS'b'
tRp2706
(I1
(I72
I1
tg2606
I00
(lp2707
(lp2708
F0.91677049277132028
aF1.2330832952666242
aF1.4330793175831786
aF1.8496226974348247
aF2.1661465738015977
aa(lp2709
F0.18364774144538387
aa(lp2710
F1.683259917264877
aF1.9163563645524846
aF2.7327779117931641
aF2.9160904371346987
aF3.0991687923760765
aF3.1990628705025301
aF3.3657923033115367
aF15.860899431319922
aF15.994153125433513
aF18.309897504068431
aF18.609530338180775
aF18.726580744418243
aF19.292861468818955
aF19.426238663601907
aa(lp2711
F0.36689258200567565
aa(lp2712
F0.58341331472001912
aF1.1666729753596883
aF1.4664270646753721
aF1.7495204324641236
aF2.0827345422076178
aF2.6160739489932894
aa(lp2713
F3.1825384808835224
aa(lp2714
F0.083878767893111217
aa(lp2715
F0.51701999620127026
aF1.0167665792432672
aF1.1834697080121259
aF1.5165750730102445
aF1.8498908703168127
aF2.1996415593548591
aF2.4995890795889864
aa(lp2716
F0.3002554699578468
aa(lp2717
F0.083524304933234816
aa(lp2718
F0.46696341044116707
aF0.90011329983462929
aF1.1998760502374353
aF1.7163471902149467
aF2.2827706621428661
aF2.5660138346411259
aF2.7658189922858583
aF3.1159328053709032
aF4.1322522159553046
aF4.5152152825176017
aF5.4312957754427771
aF6.3146748949129687
aF6.5978770074470958
aF6.8809597894651233
aF7.7640447527937795
aF8.1972414762094559
aF9.0648003202677501
aF9.4467243772996881
aF9.7300281774005271
aF9.9131058910788852
aF10.179783293215223
aa(lp2719
F0.083769702367135324
aa(lp2720
F0.13370599526751903
aa(lp2721
F0.71694672982994234
aF1.1666299907101347
aF1.4665136755338608
aF8.7304253042293567
aF8.9804397393727413
aF9.4635509425825148
aF9.9965907399528078
aF10.562998814393723
aa(lp2722
F0.2171266879504401
aa(lp2723
F0.58341235237639921
aa(lp2724
F0.28369803990062792
aa(lp2725
F0.750281966464172
aa(lp2726
F0.20021960664416838
aa(lp2727
F0.066624601589865051
aa(lp2728
F6.4313358730632899
aF6.5477059028835356
aF6.7977498498748901
aF6.9477380451353383
aF7.3972663688109606
aF7.5475522488031856
aF8.0972880536046432
aF8.2470295683069708
aF8.5471544804131554
aF8.7303040490260173
aF8.8304393544349296
aF10.113204563302133
aF10.229690715828838
aF10.546359905973077
aF10.679518328141057
aF10.812974755821415
aF11.31271364011991
aF11.39591395628122
aa(lp2729
F0.25028774052043445
aa(lp2730
F0.33358974424845655
aa(lp2731
F0.15135119356273208
aa(lp2732
F0.21709845922487148
aa(lp2733
F0.36705874654217041
aa(lp2734
F2.5826697444535966
aF2.6993984073869797
aF2.8491238830411021
aF4.1152052741526859
aF4.6319664001202909
aF5.0483336712222808
aF5.1484356154123816
aF5.3482792667728063
aF9.2634452131787839
aF9.363139444767512
aF9.8298507213730772
aF10.096460438726353
aF10.212964234206083
aF13.444901058321193
aa(lp2735
F1.4664395751315169
aF2.182939777865613
aF2.4661669113156677
aF2.5330295323783503
aF2.799470198166091
aF3.9822611336658156
aF4.1489248063753621
aF4.6152739212775487
aF4.6820095130806294
aF5.265195394098555
aa(lp2736
F0.083808837644028245
aa(lp2737
F0.15062237922029453
aa(lp2738
F1.066788841442758
aF1.6994641674846207
aF1.8498363375547342
aF1.9330212562308589
aF2.4493634422633477
aF2.799122471604278
aF3.3324775966575544
aF3.9989789542032668
aa(lp2739
F0.11727848149894271
aa(lp2740
F0.30039982138805499
aa(lp2741
F0.30035747830334003
aa(lp2742
F0.10016674194230291
aa(lp2743
F0.067199441071352339
aa(lp2744
F0.150335601039842
aa(lp2745
F0.64995451325921749
aa(lp2746
F1.1333210581142339
aF1.5164377787587
aF2.0660305152505316
aF2.2162769391834445
aF2.316113597518779
aF3.1823889969564334
aa(lp2747
F1.0167008191456262
aF1.2499031241495686
aF1.4497904017189285
aF1.7330646899699786
aF2.0327857388474513
aF2.5658470285416115
aF4.2320869496033993
aF4.3823128435560648
aF4.6818629161807621
aF4.8151153271701332
aF5.2815003695395717
aF6.6803350364662037
aF7.0301441076371702
aF7.2967371443810407
aF7.4304652735354466
aF7.6804322330972354
aF8.0470697942382685
aF8.49690157670193
aa(lp2748
F0.63371369401102129
aF1.0334625866744318
aF1.1833064305028529
aF1.5165805262859067
aF1.8497827671326377
aF2.2495595677410165
aF2.5328296858388057
aa(lp2749
F0.083594876741699409
aa(lp2750
F0.20024943927455752
aa(lp2751
F0.066746177573804744
aa(lp2752
F0.35026137232671317
aa(lp2753
F75.670702625786362
aF75.970631540723844
aF76.220353744412932
aF77.853051525122282
aF78.286237341984815
aF78.60258510960557
aF78.952703734405077
aF79.136078812032792
aF79.802465009213847
aF80.018915811679108
aF81.251763653721355
aF81.535095040982924
aF82.234469069016995
aF82.568028980635063
aF82.684447769161125
aF83.234382778939107
aF83.335048335275133
aF84.217367594452298
aa(lp2754
F0.3668370868981583
aF1.0001106694326154
aF1.3665124565668521
aF1.7330948433827871
aF2.116126557071766
aF2.482806461299333
aa(lp2755
F0.18376931743114255
aa(lp2756
F49.680702330666463
aa(lp2757
F0.083797610310284654
aa(lp2758
F1.0834328823584656
aF1.2829907178820577
aF1.3998489763234829
aF2.0497050098292675
aF2.3496512469391746
aF2.6493636347313441
aF2.8990033977115672
aF3.1490701201528282
aF3.3159467914210836
aF4.0487853308150079
aF4.3485939528945892
aF4.5651525377634243
aF5.5149849617882865
aF5.9980599167520268
aF6.3477259196151863
aF6.6644817206179141
aF6.7810843166334962
aF6.9643240246987261
aF7.5141791600162833
aa(lp2759
F0.70009097347974603
aa(lp2760
F0.18376386415184243
aa(lp2761
F0.10033290648243565
aa(lp2762
F0.11729387898594723
aa(lp2763
F0.28370413473930967
aa(lp2764
F0.083678279792366084
aa(lp2765
F0.21709460985402984
aa(lp2766
F0.30019965406972915
aa(lp2767
F0.73346374148604809
aF1.1166250506830693
aF1.2833336327275902
aF1.4498738047695952
aF1.8160821609853883
aF2.0496665161135752
aF2.3495049708217266
aF2.7660461052055325
aF4.7984369626919943
aF4.9486169849660655
aF5.0982686810002633
aF5.481717730717719
aF5.6815222468012507
aF5.9980935987514385
aF6.2313013570310432
aF6.7143570651351183
aF7.4977054537885124
aF7.6640451377297723
aF8.0471323465244495
aF8.3637136426859797
aF8.6639097681654675
aF9.1300154103173554
aF9.5297729640660691
aF9.6300365818606224
aF10.412947746064674
aF11.479218205473444
aF11.562401841025348
aF12.378897809450791
aF12.528805167909013
aF13.146127596401129
aF13.828423246097373
aF14.128091045335168
aF14.244805593905767
aF14.428066794294864
aF15.110756363010296
aa(lp2768
F0.25024347274847969
aa(lp2769
F0.65024064987665042
aa(lp2770
F0.76679031703315559
aF1.0333721264432825
aF1.199935073933375
aF2.0661860940163024
aF2.4994546723664826
aF2.8158556896269147
aF3.5156233158995747
aF3.9321718282462825
aF4.2321729189006874
aF4.9318366121424333
aa(lp2771
F0.25020946996664861
aa(lp2772
F0.21700607430830132
aa(lp2773
F0.93324195352943207
aa(lp2774
F0.26691670473155682
aa(lp2775
F1.3327730359214911
aF1.7992748425604077
aF2.0825366203534941
aF2.4655009700400115
aF2.9320518561653444
aF3.1154182727095758
aF3.4985494284956076
aF3.9320056637079688
aF4.231550283057004
aa(lp2776
F2.6994243906447082
aF3.2492156905518641
aF3.6321450751147495
aF4.1487679444871901
aF4.3986563127127738
aF4.9819047460186994
aF5.4815448297813418
aF6.2813964365086576
aF6.7644088391843979
aF7.4642479996091424
aa(lp2777
F0.13381538157591422
aa(lp2778
F0.60005863875994692
aF0.99988002792088082
aF1.1501062426541466
aF1.8830714905270725
aF2.2164065346933057
aF2.5827791307601728
aF2.8827337081766018
aa(lp2779
F0.93344083772535669
aF1.2166108721648925
aF1.8831905002643907
aF2.2328016495848715
aF2.5159784204242897
aF2.7993944938589266
aF2.9324252452042856
aF3.3325606789258018
aF3.6323997751969728
aF3.8990912916960951
aatbsg18
g2603
(g2604
(I0
tS'b'
tRp2780
(I1
(I72
I1
tg2606
I00
(lp2781
NaNaNaNaNaNaNaNaNaNaNaNaNaNaNaNaNaNaNaNaNaNaNaNaNaNaNaNaNaNaNaNaNaNaNaNaNaNaNaNaNaNaNaNaNaNaNaNaNaNaNaNaNaNaNaNaNaNaNaNaNaNaNaNaNaNaNaNaNaNaNaNatbsS'order'
p2782
g2613
(g2614
g2604
g2615
S'b'
tRp2783
(I1
(I72
I1
tg2617
I00
S'\x00\x00\\B\x00\x00\xe8A\x00\x00hB\x00\x00 B\x00\x00\x82B\x00\x00\x00\x00\x00\x00XB\x00\x00\xf0A\x00\x00|B\x00\x00\x8cB\x00\x00$B\x00\x00\xd0A\x00\x00pA\x00\x00\x8aB\x00\x00xB\x00\x00\xa0@\x00\x00<B\x00\x00\x00B\x00\x00\x84B\x00\x00\x88B\x00\x00(B\x00\x00\x1cB\x00\x00 A\x00\x00\x80B\x00\x008B\x00\x00\xb0A\x00\x00,B\x00\x00\xa8A\x00\x00`A\x00\x00\x04B\x00\x00@@\x00\x00\xd8A\x00\x000B\x00\x00tB\x00\x00TB\x00\x00\xc8A\x00\x00DB\x00\x00\xe0@\x00\x000A\x00\x00LB\x00\x00\x80A\x00\x00\x10A\x00\x00\x98A\x00\x004B\x00\x00\x80?\x00\x00\xc0@\x00\x00\x14B\x00\x00\x88A\x00\x00\x0cB\x00\x00\x08B\x00\x00@A\x00\x00\x80@\x00\x00`B\x00\x00\xa0A\x00\x00\x18B\x00\x00\x00A\x00\x00\x86B\x00\x00pB\x00\x00PB\x00\x00\x00@\x00\x00dB\x00\x00\x10B\x00\x00\x90A\x00\x00PA\x00\x00HB\x00\x00\xb8A\x00\x00lB\x00\x00\x8eB\x00\x00\xc0A\x00\x00\xe0A\x00\x00\xf8A\x00\x00@B'
S'\x00\x00\x00\x00\x00\x00\x00\x00\x00\x00\x00\x00\x00\x00\x00\x00\x00\x00\x00\x00\x00\x00\x00\x00\x00\x00\x00\x00\x00\x00\x00\x00\x00\x00\x00\x00\x00\x00\x00\x00\x00\x00\x00\x00\x00\x00\x00\x00\x00\x00\x00\x00\x00\x00\x00\x00\x00\x00\x00\x00\x00\x00\x00\x00\x00\x00\x00\x00\x00\x00\x00\x00'
NtbstRp2784
(dp2785
S'isNumeric'
p2786
(dp2787
g16
I00
sg20
I00
sg17
I01
sg2618
I01
sg25
I00
sg22
I00
sg27
I00
sg19
I00
sg23
I00
sg21
I00
sg24
I00
sg28
I00
sg18
I00
sg2782
I01
ssg2597
g2591
sS'dataTypes'
p2788
(lp2789
g2618
ag2782
ag16
ag17
ag18
ag19
ag20
ag21
ag22
ag23
ag24
ag25
ag27
ag28
asS'dataShape'
p2790
(lp2791
I72
aI1
asbsS'method'
p2792
S'random'
p2793
sS'sequenceIndices'
p2794
g2603
(g2604
(I0
tS'b'
tRp2795
(I1
(I72
I1
tg60
I01
S'\x05\x00\x00\x00,\x00\x00\x00;\x00\x00\x00\x1e\x00\x00\x003\x00\x00\x00\x0f\x00\x00\x00-\x00\x00\x00%\x00\x00\x007\x00\x00\x00)\x00\x00\x00\x16\x00\x00\x00&\x00\x00\x002\x00\x00\x00?\x00\x00\x00\x1c\x00\x00\x00\x0c\x00\x00\x00(\x00\x00\x00/\x00\x00\x00>\x00\x00\x00*\x00\x00\x005\x00\x00\x00\x1b\x00\x00\x00\x19\x00\x00\x00A\x00\x00\x00D\x00\x00\x00#\x00\x00\x00\x0b\x00\x00\x00\x1f\x00\x00\x00E\x00\x00\x00\x01\x00\x00\x00\x07\x00\x00\x00F\x00\x00\x00\x11\x00\x00\x00\x1d\x00\x00\x001\x00\x00\x000\x00\x00\x00=\x00\x00\x00.\x00\x00\x006\x00\x00\x00\x15\x00\x00\x00\x03\x00\x00\x00\n\x00\x00\x00\x14\x00\x00\x00\x1a\x00\x00\x00 \x00\x00\x00+\x00\x00\x00\x18\x00\x00\x00\x10\x00\x00\x00G\x00\x00\x00$\x00\x00\x00@\x00\x00\x00\'\x00\x00\x00:\x00\x00\x00"\x00\x00\x00\x06\x00\x00\x00\x00\x00\x00\x004\x00\x00\x00<\x00\x00\x00\x02\x00\x00\x00B\x00\x00\x009\x00\x00\x00!\x00\x00\x00\x0e\x00\x00\x00\x08\x00\x00\x00\x17\x00\x00\x00\x04\x00\x00\x00\x12\x00\x00\x008\x00\x00\x00\x13\x00\x00\x00\r\x00\x00\x00\t\x00\x00\x00C\x00\x00\x00'
tbsS'finished'
p2796
I01
sS'nReps'
p2797
I1
sS'nRemaining'
p2798
I-1
sS'trialList'
p2799
(lp2800
g1
(cpsychopy.data
TrialType
p2801
g2601
(dp2802
g52
g721
sg53
g720
stRp2803
ag1
(g2801
g2601
(dp2804
g52
g418
sg53
g417
stRp2805
ag1
(g2801
g2601
(dp2806
g52
g755
sg53
g754
stRp2807
ag1
(g2801
g2601
(dp2808
g52
g542
sg53
g541
stRp2809
ag1
(g2801
g2601
(dp2810
g52
g834
sg53
g833
stRp2811
ag1
(g2801
g2601
(dp2812
g52
g64
sg53
g62
stRp2813
ag1
(g2801
g2601
(dp2814
g52
g710
sg53
g709
stRp2815
ag1
(g2801
g2601
(dp2816
g52
g429
sg53
g428
stRp2817
ag1
(g2801
g2601
(dp2818
g52
g812
sg53
g811
stRp2819
ag1
(g2801
g2601
(dp2820
g52
g891
sg53
g890
stRp2821
ag1
(g2801
g2601
(dp2822
g52
g553
sg53
g552
stRp2823
ag1
(g2801
g2601
(dp2824
g52
g385
sg53
g384
stRp2825
ag1
(g2801
g2601
(dp2826
g52
g256
sg53
g255
stRp2827
ag1
(g2801
g2601
(dp2828
g52
g879
sg53
g878
stRp2829
ag1
(g2801
g2601
(dp2830
g52
g801
sg53
g800
stRp2831
ag1
(g2801
g2601
(dp2832
g52
g137
sg53
g136
stRp2833
ag1
(g2801
g2601
(dp2834
g52
g628
sg53
g627
stRp2835
ag1
(g2801
g2601
(dp2836
g52
g453
sg53
g452
stRp2837
ag1
(g2801
g2601
(dp2838
g52
g846
sg53
g845
stRp2839
ag1
(g2801
g2601
(dp2840
g52
g868
sg53
g867
stRp2841
ag1
(g2801
g2601
(dp2842
g52
g568
sg53
g567
stRp2843
ag1
(g2801
g2601
(dp2844
g52
g531
sg53
g530
stRp2845
ag1
(g2801
g2601
(dp2846
g52
g197
sg53
g196
stRp2847
ag1
(g2801
g2601
(dp2848
g52
g823
sg53
g822
stRp2849
ag1
(g2801
g2601
(dp2850
g52
g617
sg53
g616
stRp2851
ag1
(g2801
g2601
(dp2852
g52
g339
sg53
g338
stRp2853
ag1
(g2801
g2601
(dp2854
g52
g582
sg53
g581
stRp2855
ag1
(g2801
g2601
(dp2856
g52
g326
sg53
g325
stRp2857
ag1
(g2801
g2601
(dp2858
g52
g245
sg53
g244
stRp2859
ag1
(g2801
g2601
(dp2860
g52
g464
sg53
g463
stRp2861
ag1
(g2801
g2601
(dp2862
g52
g112
sg53
g111
stRp2863
ag1
(g2801
g2601
(dp2864
g52
g396
sg53
g395
stRp2865
ag1
(g2801
g2601
(dp2866
g52
g595
sg53
g594
stRp2867
ag1
(g2801
g2601
(dp2868
g52
g790
sg53
g789
stRp2869
ag1
(g2801
g2601
(dp2870
g52
g699
sg53
g698
stRp2871
ag1
(g2801
g2601
(dp2872
g52
g374
sg53
g373
stRp2873
ag1
(g2801
g2601
(dp2874
g52
g652
sg53
g651
stRp2875
ag1
(g2801
g2601
(dp2876
g52
g162
sg53
g161
stRp2877
ag1
(g2801
g2601
(dp2878
g52
g208
sg53
g207
stRp2879
ag1
(g2801
g2601
(dp2880
g52
g674
sg53
g673
stRp2881
ag1
(g2801
g2601
(dp2882
g52
g267
sg53
g266
stRp2883
ag1
(g2801
g2601
(dp2884
g52
g186
sg53
g185
stRp2885
ag1
(g2801
g2601
(dp2886
g52
g303
sg53
g302
stRp2887
ag1
(g2801
g2601
(dp2888
g52
g606
sg53
g605
stRp2889
ag1
(g2801
g2601
(dp2890
g52
g77
sg53
g76
stRp2891
ag1
(g2801
g2601
(dp2892
g52
g148
sg53
g147
stRp2893
ag1
(g2801
g2601
(dp2894
g52
g508
sg53
g507
stRp2895
ag1
(g2801
g2601
(dp2896
g52
g279
sg53
g278
stRp2897
ag1
(g2801
g2601
(dp2898
g52
g486
sg53
g485
stRp2899
ag1
(g2801
g2601
(dp2900
g52
g475
sg53
g474
stRp2901
ag1
(g2801
g2601
(dp2902
g52
g220
sg53
g219
stRp2903
ag1
(g2801
g2601
(dp2904
g52
g125
sg53
g124
stRp2905
ag1
(g2801
g2601
(dp2906
g52
g733
sg53
g732
stRp2907
ag1
(g2801
g2601
(dp2908
g52
g314
sg53
g313
stRp2909
ag1
(g2801
g2601
(dp2910
g52
g520
sg53
g519
stRp2911
ag1
(g2801
g2601
(dp2912
g52
g173
sg53
g172
stRp2913
ag1
(g2801
g2601
(dp2914
g52
g857
sg53
g856
stRp2915
ag1
(g2801
g2601
(dp2916
g52
g779
sg53
g778
stRp2917
ag1
(g2801
g2601
(dp2918
g52
g688
sg53
g687
stRp2919
ag1
(g2801
g2601
(dp2920
g52
g88
sg53
g87
stRp2921
ag1
(g2801
g2601
(dp2922
g52
g744
sg53
g743
stRp2923
ag1
(g2801
g2601
(dp2924
g52
g497
sg53
g496
stRp2925
ag1
(g2801
g2601
(dp2926
g52
g290
sg53
g289
stRp2927
ag1
(g2801
g2601
(dp2928
g52
g234
sg53
g233
stRp2929
ag1
(g2801
g2601
(dp2930
g52
g663
sg53
g662
stRp2931
ag1
(g2801
g2601
(dp2932
g52
g350
sg53
g349
stRp2933
ag1
(g2801
g2601
(dp2934
g52
g768
sg53
g767
stRp2935
ag1
(g2801
g2601
(dp2936
g52
g902
sg53
g901
stRp2937
ag1
(g2801
g2601
(dp2938
g52
g361
sg53
g360
stRp2939
ag1
(g2801
g2601
(dp2940
g52
g407
sg53
g406
stRp2941
ag1
(g2801
g2601
(dp2942
g52
g441
sg53
g440
stRp2943
ag1
(g2801
g2601
(dp2944
g52
g639
sg53
g638
stRp2945
asS'seed'
p2946
NsS'thisIndex'
p2947
g900
sS'thisN'
p2948
I72
sS'thisTrialN'
p2949
I0
sS'nTotal'
p2950
I72
sbag1
(g2590
g3
NtRp2951
(dp2952
g2593
Nsg2594
(lp2953
sg2596
I357510768
sg10
g2597
sg6
I-1
sg2598
I1
sg29
I01
sg30
g31
sg2599
g1
(g2600
g2601
(dp2954
g16
g2603
(g2604
(I0
tS'b'
tRp2955
(I1
(I72
I1
tg2606
I00
(lp2956
g176
ag67
ag176
ag67
ag67
ag176
ag67
ag67
ag67
ag176
ag67
ag176
ag176
ag67
ag67
ag67
ag67
ag67
ag67
ag67
ag67
ag176
ag176
ag67
ag176
ag176
ag67
ag176
ag67
ag176
ag67
ag176
ag67
ag176
ag67
ag67
ag67
ag67
ag67
ag176
ag67
ag176
ag67
ag176
ag67
ag67
ag176
ag67
ag67
ag67
ag176
ag67
ag176
ag176
ag67
ag67
ag67
ag67
ag176
ag67
ag67
ag67
ag67
ag176
ag67
ag176
ag67
ag176
ag176
ag176
ag67
ag176
atbsg20
g2603
(g2604
(I0
tS'b'
tRp2957
(I1
(I72
I1
tg2606
I00
(lp2958
NaNaNaF0.80500000000000005
aNaNaNaF1.1060000000000001
aF0.73999999999999999
aNaF0.40600000000000003
aNaNaNaF0.40699999999999997
aNaF0.76600000000000001
aF1.4399999999999999
aF1.0720000000000001
aF1.5649999999999999
aF0.59899999999999998
aNaNaF2.2160000000000002
aNaNaNaNaF1.4059999999999999
aNaF0.90600000000000003
aNaNaNaNaNaF0.48299999999999998
aF0.40699999999999997
aNaNaNaNaNaNaF2.206
aF0.41599999999999998
aNaNaF0.70599999999999996
aNaNaNaNaNaNaF0.90200000000000002
aNaF0.95699999999999996
aNaF0.56799999999999995
aF0.64000000000000001
aNaF0.49099999999999999
aNaF0.624
aNaF0.65700000000000003
aNaNaNaF0.624
aNatbsg17
g2613
(g2614
g2604
g2615
S'b'
tRp2959
(I1
(I72
I1
tg2617
I00
S"\x7fj\xbc?Zd\xcb?o\x12\x83?\xb8\x1e\x85?\xdd$\xb6?5^\x9a?\x10X\x89?\x98nb@\x08\xac\xbc?-\xb2\x8d?#\xdb9@\xa2E\x96?=\nW?33#@\xb4\xc8&@\xb4\xc8V@\x12\x83\x90@\x02+\xe7?\x87\x16y?}?\xed@\xf6(\xa0@\xcd\xcc\xac?\xb8\x1e\x85?5^\nA\xf4\xfd\xe4?\xaa\xf1\xa2?\xecQ\x98?\xbe\x9f\x9a?\xbe\x9f\xea?\x02+\x87?w\xbe\x8f?u\x93\xa8?\x9c\xc4\x80?\xc1\xca\x91?`\xe5\xa0?\xfa~\x9a?\x17\xd9\xa2@`\xe5\x80?\x02+\xc7?\x85\xeb\x81?\x0e-\x02@\x8d\x97\x9e?Zd\x8b?B`\r@;\xdf\x8f?\xd3M\x8a@\x8bl\xd7?NbP@5^\x9a?\xecQ\x98?\xecQ\x98?`\xe5p?\x83\xc0\xaa?u\x93\xa8?-\xb2\x05@\xf4\xfd\xf8@\x17\xd9\x16@\xf4\xfd\xe4?\xb8\x1e\x85?\xb0r\xa4@\xf6(<@\x02+\xc7?5^\xda?\xcb\xa1\xa5?-\xb2\x05@\xfe\xd4x?`\xe5\x80?o\x12\xa3?\xb4\xc8V?\xb8\x1e\xa5?'1\x00@5^\x9a?"
S'\x00\x00\x00\x00\x00\x00\x00\x00\x00\x00\x00\x00\x00\x00\x00\x00\x00\x00\x00\x00\x00\x00\x00\x00\x00\x00\x00\x00\x00\x00\x00\x00\x00\x00\x00\x00\x00\x00\x00\x00\x00\x00\x00\x00\x00\x00\x00\x00\x00\x00\x00\x00\x00\x00\x00\x00\x00\x00\x00\x00\x00\x00\x00\x00\x00\x00\x00\x00\x00\x00\x00\x00'
Ntbsg2618
g2613
(g2614
g2604
g2615
S'b'
tRp2960
(I1
(I72
I1
tg2617
I00
S'\x00\x00\x80?\x00\x00\x80?\x00\x00\x80?\x00\x00\x80?\x00\x00\x80?\x00\x00\x80?\x00\x00\x80?\x00\x00\x80?\x00\x00\x80?\x00\x00\x80?\x00\x00\x80?\x00\x00\x80?\x00\x00\x80?\x00\x00\x80?\x00\x00\x80?\x00\x00\x80?\x00\x00\x80?\x00\x00\x80?\x00\x00\x80?\x00\x00\x80?\x00\x00\x80?\x00\x00\x80?\x00\x00\x80?\x00\x00\x80?\x00\x00\x80?\x00\x00\x80?\x00\x00\x80?\x00\x00\x80?\x00\x00\x80?\x00\x00\x80?\x00\x00\x80?\x00\x00\x80?\x00\x00\x80?\x00\x00\x80?\x00\x00\x80?\x00\x00\x80?\x00\x00\x80?\x00\x00\x80?\x00\x00\x80?\x00\x00\x80?\x00\x00\x80?\x00\x00\x80?\x00\x00\x80?\x00\x00\x80?\x00\x00\x80?\x00\x00\x80?\x00\x00\x80?\x00\x00\x80?\x00\x00\x80?\x00\x00\x80?\x00\x00\x80?\x00\x00\x80?\x00\x00\x80?\x00\x00\x80?\x00\x00\x80?\x00\x00\x80?\x00\x00\x80?\x00\x00\x80?\x00\x00\x80?\x00\x00\x80?\x00\x00\x80?\x00\x00\x80?\x00\x00\x80?\x00\x00\x80?\x00\x00\x80?\x00\x00\x80?\x00\x00\x80?\x00\x00\x80?\x00\x00\x80?\x00\x00\x80?\x00\x00\x80?\x00\x00\x80?'
S'\x00\x00\x00\x00\x00\x00\x00\x00\x00\x00\x00\x00\x00\x00\x00\x00\x00\x00\x00\x00\x00\x00\x00\x00\x00\x00\x00\x00\x00\x00\x00\x00\x00\x00\x00\x00\x00\x00\x00\x00\x00\x00\x00\x00\x00\x00\x00\x00\x00\x00\x00\x00\x00\x00\x00\x00\x00\x00\x00\x00\x00\x00\x00\x00\x00\x00\x00\x00\x00\x00\x00\x00'
Ntbsg25
g2603
(g2604
(I0
tS'b'
tRp2961
(I1
(I72
I1
tg2606
I00
(lp2962
NaNaNaNaNaNaNaNaNaNaNaNaNaNaNaNaNaNaNaNaNaNaNaNaNaNaNaNaNaNaNaNaNaNaNaNaNaNaNaNaNaNaNaNaNaNaNaNaNaNaNaNaNaNaNaNaNaNaNaNaNaNaNaNaNaNaNaNaNaNaNaNatbsg22
g2603
(g2604
(I0
tS'b'
tRp2963
(I1
(I72
I1
tg2606
I00
(lp2964
NaF0.50600000000000001
aF1.3560000000000001
aNaF1.222
aNaNaNaNaNaNaNaNaNaNaF2.355
aNaNaNaNaNaNaNaNaNaNaF0.57299999999999995
aF1.0569999999999999
aNaNaNaNaNaNaF0.83999999999999997
aNaNaNaF0.93799999999999994
aNaF0.622
aNaNaNaNaNaNaF0.67400000000000004
aNaF0.52300000000000002
aF1.306
aNaNaNaNaNaF1.1399999999999999
aNaNaNaNaF1.6559999999999999
aNaF3.2389999999999999
aNaNaNaNaNaNaNaF1.256
atbsg27
g2603
(g2604
(I0
tS'b'
tRp2965
(I1
(I72
I1
tg2606
I00
(lp2966
(lp2967
g1046
aa(lp2968
g1193
aa(lp2969
g1380
aa(lp2970
S'l'
aS'e'
aS'o'
aS'n'
aS'a'
aS'r'
aS'd'
aS'o'
ag1205
aa(lp2971
S's'
aS't'
aS'i'
aS'r'
aS'l'
aS'i'
aS'n'
aS'g'
ag1553
aa(lp2972
g1323
aa(lp2973
S'm'
aS'e'
aS'r'
aS'k'
aS'e'
aS'l'
ag1705
aa(lp2974
S'l'
aS'e'
aS'o'
aS'n'
aS'a'
aS'r'
aS'd'
aS'o'
ag1058
aS'd'
aS'i'
ag1059
aS'k'
aS's'
aS'p'
ag1060
ag1061
aS'a'
aS'p'
aS'r'
aS'i'
aS'o'
ag1062
aa(lp2975
g1290
aa(lp2976
g1473
aa(lp2977
g931
aa(lp2978
g1484
aa(lp2979
g1495
aa(lp2980
S'm'
aS'e'
aS'r'
aS'k'
aS'l'
ag1074
aS'e'
aS'l'
ag1075
aa(lp2981
g1439
aa(lp2982
S'b'
aS'r'
aS'i'
aS't'
aS'n'
aS'e'
aS'y'
ag1002
aa(lp2983
S'n'
aS'i'
aS'l'
ag1565
ag1566
ag1567
aS'b'
aS'a'
aS'r'
aS'n'
aS'i'
ag1568
aS's'
aS't'
aS'i'
aS'n'
aS's'
aS'o'
aS'n'
ag1569
aa(lp2984
S'c'
aS'o'
aS'm'
aS'e'
aS'd'
aS'i'
aS'e'
aS'n'
ag1087
aa(lp2985
S'c'
aS'h'
aS'y'
aS'u'
ag1254
aS'l'
aS'o'
aS'r'
aS'i'
ag1255
aa(lp2986
S't'
aS'e'
aS'd'
ag1230
aS'm'
aS'o'
aS's'
aS'b'
aS'i'
ag1231
aa(lp2987
S't'
aS'e'
aS'd'
ag1368
aS'm'
aS'o'
aS's'
aS'b'
aS'i'
ag1369
aa(lp2988
g1182
aa(lp2989
g1098
aa(lp2990
S'm'
aS'a'
aS'r'
aS's'
aS'h'
aS'a'
aS'l'
ag1267
aS'e'
aS'r'
aS'i'
aS'k'
aS's'
aS'o'
aS'n'
ag1268
aa(lp2991
g1109
aa(lp2992
g1334
aa(lp2993
g942
aa(lp2994
g1716
aa(lp2995
g1580
aa(lp2996
g1301
aa(lp2997
g1647
aa(lp2998
g979
aa(lp2999
S'o'
aS'b'
aS'a'
aS'm'
aS'a'
ag1121
aa(lp3000
g1035
aa(lp3001
g1530
aa(lp3002
S'm'
aS'e'
aS'r'
aS'k'
aS'e'
aS'l'
ag954
aa(lp3003
S'm'
aS'a'
aS'r'
aS's'
aS'h'
aS'a'
aS'l'
ag1414
aS'e'
aS'r'
aS'i'
aS'k'
aS's'
ag1415
ag1416
aS'c'
aS's'
aS'o'
aS'n'
ag1417
aa(lp3004
g1693
aa(lp3005
S's'
aS't'
aS'i'
aS'r'
aS'l'
aS'i'
aS'n'
aS'g'
ag1625
aa(lp3006
g1636
aa(lp3007
g1671
aa(lp3008
g1312
aa(lp3009
S'o'
aS'b'
aS'a'
aS'm'
aS'a'
ag1133
aa(lp3010
g920
aa(lp3011
g1682
aa(lp3012
g990
aa(lp3013
g1013
aa(lp3014
g1024
aa(lp3015
g1727
aa(lp3016
g1144
aa(lp3017
g1602
aa(lp3018
S'o'
aS'b'
aS'a'
aS'm'
aS'a'
ag1519
aa(lp3019
g1279
aa(lp3020
g1428
aa(lp3021
g1462
aa(lp3022
S'n'
aS'i'
aS'l'
ag1169
aS'p'
aS'a'
aS't'
aS'r'
aS'i'
aS'k'
ag1170
aS'h'
aS'a'
aS'r'
aS'r'
aS'i'
aS's'
ag1171
aa(lp3023
S'b'
aS'r'
aS'o'
ag1156
aS'i'
aS't'
aS'n'
aS'e'
aS'y'
ag1157
aa(lp3024
S's'
ag966
aS'c'
aS'h'
aS'y'
aS'u'
ag967
aS'l'
aS'o'
aS'r'
aS'i'
ag968
aa(lp3025
g1591
aa(lp3026
g1402
aa(lp3027
S'b'
aS'a'
aS'r'
aS'n'
aS'i'
ag1659
aS's'
aS't'
aS'i'
aS'n'
aS's'
aS'o'
aS'n'
ag1660
aa(lp3028
S's'
aS't'
aS'i'
aS'r'
aS'l'
aS'i'
aS'n'
aS'g'
ag1507
aa(lp3029
g1738
aa(lp3030
g1242
aa(lp3031
g1391
aa(lp3032
g1613
aa(lp3033
S'l'
aS'e'
aS'o'
aS'n'
aS'a'
aS'r'
aS'd'
aS'o'
ag1451
aa(lp3034
g1345
aa(lp3035
g1749
aa(lp3036
g1541
aa(lp3037
S'c'
aS'h'
aS'y'
aS'u'
ag1217
aS'l'
aS'o'
aS'r'
aS'i'
ag1218
aa(lp3038
g1356
aatbsg19
g2603
(g2604
(I0
tS'b'
tRp3039
(I1
(I72
I1
tg2606
I00
(lp3040
NaNaNag71
aNaNaNag71
ag106
aNag71
aNaNaNag71
aNag106
ag71
ag71
ag106
ag71
aNaNag71
aNaNaNaNag106
aNag106
aNaNaNaNaNag106
ag71
aNaNaNaNaNaNag71
ag106
aNaNag106
aNaNaNaNaNaNag71
aNag71
aNag71
ag106
aNag106
aNag71
aNag106
aNaNaNag71
aNatbsg23
g2603
(g2604
(I0
tS'b'
tRp3041
(I1
(I72
I1
tg2606
I00
(lp3042
g321
aNaNaNaNag132
ag132
aNaNag132
aNag132
ag321
ag132
aNaNaNaNaNaNaNag132
ag132
aNag132
ag132
aNaNaNag321
aNag132
ag132
ag132
aNag132
aNaNaNag321
aNag132
ag132
ag321
aNaNag321
aNaNaNaNag132
ag132
ag132
ag132
aNaNaNag132
aNaNaNaNaNaNag321
aNag321
ag132
ag132
aNaNatbsg21
g2603
(g2604
(I0
tS'b'
tRp3043
(I1
(I72
I1
tg2606
I00
(lp3044
Nag120
ag120
aNag120
aNaNaNaNaNaNaNaNaNaNag120
aNaNaNaNaNaNaNaNaNaNag120
ag181
aNaNaNaNaNaNag120
aNaNaNag120
aNag120
aNaNaNaNaNaNag181
aNag120
ag181
aNaNaNaNaNag120
aNaNaNaNag120
aNag120
aNaNaNaNaNaNaNag181
atbsg24
g2603
(g2604
(I0
tS'b'
tRp3045
(I1
(I72
I1
tg2606
I00
(lp3046
F0.85599999999999998
aNaNaNaNaF0.67300000000000004
aF0.78900000000000003
aNaNaF0.60699999999999998
aNaF0.624
aF0.65500000000000003
aF0.63900000000000001
aNaNaNaNaNaNaNaF1.456
aF0.57299999999999995
aNaF0.623
aF2.8889999999999998
aNaNaNaF0.72199999999999998
aNaF2.1400000000000001
aF0.78900000000000003
aF0.64000000000000001
aNaF0.60699999999999998
aNaNaNaF1.423
aNaF0.52300000000000002
aF0.58899999999999997
aS'5.10200023651'
p3047
aNaNaF0.88900000000000001
aNaNaNaNaF1.0569999999999999
aF0.872
aF0.57299999999999995
aF0.85599999999999998
aNaNaNaF0.79100000000000004
aNaNaNaNaNaNaF1.2230000000000001
aNaF0.70699999999999996
aF0.64000000000000001
aF0.55600000000000005
aNaNatbsg28
g2603
(g2604
(I0
tS'b'
tRp3048
(I1
(I72
I1
tg2606
I00
(lp3049
(lp3050
F0.13386061169148888
aa(lp3051
F0.10025720217527123
aa(lp3052
F0.2501722593769955
aa(lp3053
F0.98329148211087158
aF1.3500823765498353
aF1.7665176532173064
aF2.2330492924847931
aF2.6325720345721493
aF3.1326461349744932
aF3.3493044827209815
aF3.6990115455482737
aF4.2155336896994413
aa(lp3054
F0.45030974609471741
aF1.6330814347365958
aF1.9163124175593111
aF3.0157330229885702
aF4.0988890713779256
aF4.2486212834319304
aF4.6818420654180954
aF4.9318982020868134
aF5.2649605824353785
aa(lp3055
F0.11716107566826395
aa(lp3056
F0.65005523848049052
aF1.3498267141239921
aF1.516521502588148
aF1.949635143733758
aF2.2495666249214992
aF2.5493245636080246
aF2.8325719062595454
aa(lp3057
F0.55016436816549685
aF0.98307142637167999
aF1.2165492822205124
aF1.6996598438690853
aF2.1162407550928037
aF2.3827609745585505
aF2.6160162084215699
aF2.9825062103191158
aF3.3490270071906707
aF4.8316669831710897
aF5.1150018990229
aF5.4146424318787467
aF5.5981240087876358
aF5.9481249069740443
aF6.3311954351593158
aF7.464077985701806
aF7.6140507834752498
aF8.2804065064647148
aF9.6132950235332828
aF10.063047252318938
aF10.362974242572818
aF10.529585948768727
aF10.796133113834003
aa(lp3058
F0.18343762991571566
aa(lp3059
F0.10043138623586856
aa(lp3060
F0.11713124303787481
aa(lp3061
F0.083615085943165468
aa(lp3062
F0.10033451038543717
aa(lp3063
F0.55018489814574423
aF0.98334601487476903
aF1.1166789418857661
aF1.4334758028508077
aF2.6160020940587856
aF3.4323957333563158
aF3.7489401397069742
aF3.9988012415506091
aa(lp3064
F0.11694583164353389
aa(lp3065
F3.3159349225243204
aF3.8655497929030389
aF4.1154477845575457
aF4.3819869301005383
aF4.7984302262902929
aF5.3650095977664023
aF6.297858915400866
aF6.6642154724195279
aa(lp3066
F0.61684093626899994
aF1.099967536965778
aF1.2329655686553451
aF3.5156063145095686
aF3.7155481248428259
aF4.0652532629828784
aF4.7485394842860842
aF5.214698055297049
aF5.4148810929127649
aF5.7647876814971823
aF6.0480103240133758
aF8.5636795115915447
aF9.0134779328363948
aF9.2967053870670497
aF9.5466492503983318
aF10.04633648896197
aF10.945983052499287
aF11.262615994395674
aF11.745729122292687
aF12.045436377587976
aa(lp3067
F0.58346752670149726
aF0.9165154719066777
aF1.2167196169102681
aF1.7332067959378037
aF1.8997655732746352
aF2.1495086277245719
aF2.4992076710277615
aF2.8327053511402482
aF3.2158740382983524
aa(lp3068
F2.8824966510474042
aF3.2156376227321743
aF3.6657334079263819
aF3.9989010044300812
aF4.2333726396936981
aF4.5652673773474817
aF5.8146944625514152
aF6.4144605490746471
aF6.6145281055451051
aF6.8810711004589393
aa(lp3069
F0.36698304223682499
aF0.80015057458331285
aF1.0166340967080032
aF2.0163239015182626
aF2.2659598151276441
aF2.5161339991900604
aF3.1821259565695073
aF3.515079912953297
aF3.8487155288785289
aF4.0986882624965801
aa(lp3070
F0.7167824899788684
aF0.95007333052672038
aF1.1665347187645239
aF1.5497435035431408
aF1.7830901599791105
aF1.9996728034202533
aF2.4661143032371911
aF2.799292164732833
aF3.1323282410430693
aF3.3655424149419559
aa(lp3071
F0.13375379162971512
aa(lp3072
F0.16718430020955566
aa(lp3073
F2.2827889466570923
aF2.7493645329177525
aF2.9659725180536043
aF4.3986021007294767
aF4.6484545414878085
aF4.9652292685677821
aF5.2647341110769048
aF8.7970017886746064
aF9.6964998306266352
aF9.8300178482531919
aF10.146364011969126
aF11.012800443448214
aF11.512631391880859
aF11.845736756878978
aF12.178887031210252
aF13.128471812335192
aa(lp3074
F0.10030756478408875
aa(lp3075
F0.350364022235226
aa(lp3076
F0.15035324399468664
aa(lp3077
F0.38364376376011933
aa(lp3078
F0.18385592828963127
aa(lp3079
F0.20053717979681096
aa(lp3080
F0.18374012636195403
aa(lp3081
F0.21718250383491977
aa(lp3082
F0.40035998039456899
aF1.0499680502161937
aF1.4831172980484553
aF1.7827953622781934
aF2.0996692106746195
aF2.4495459666286479
aa(lp3083
F0.067199761851952644
aa(lp3084
F0.13371722260126262
aa(lp3085
F0.85001822035883379
aF1.2332725560336257
aF1.3832248238268221
aF1.6664769781909854
aF1.9660004259967536
aF2.265811293542356
aF2.549410853687732
aa(lp3086
F0.66679647602904879
aF1.1000371464342606
aF1.366377728561929
aF2.2329427932072576
aF2.5162382530015748
aF2.7828210247535026
aF3.1325531084949034
aF3.432383222898352
aF5.7149925322191848
aF5.898177386738098
aF6.2148478600065573
aF6.3979688791150693
aF7.4807396695705393
aF8.3137292326409806
aF8.4471648095586715
aF9.1977518387157033
aF9.4130362816104025
aF9.7467572252699028
aF10.179619374142931
aF11.445862759639567
aa(lp3087
F0.067125661449608742
aa(lp3088
F0.81670190980003099
aF2.0326356133573427
aF2.3327294097107369
aF2.7492846584573272
aF3.0491353028428421
aF3.215874679859553
aF3.5989150546356541
aF3.8656373661051475
aF4.1821400709304726
aa(lp3089
F0.16726032529732038
aa(lp3090
F0.11694551086293359
aa(lp3091
F0.13360879863648734
aa(lp3092
F0.76653690007515252
aF2.1829773092376854
aF2.766114431549795
aF3.0826713483584172
aF3.465687022999191
aF3.8155727608209418
aa(lp3093
F0.16706432813225547
aa(lp3094
F0.16687667126825545
aa(lp3095
F0.21699837556479906
aa(lp3096
F0.083817819509931724
aa(lp3097
F0.28364222401251027
aa(lp3098
F0.13355105806476786
aa(lp3099
F0.11699266566392907
aa(lp3100
F0.1005224880282185
aa(lp3101
F0.4668450422668684
aF1.1998875983517792
aF1.5333066871298797
aF1.88294381970627
aF2.2329767959890887
aF2.6827890108143038
aa(lp3102
F0.13372812915440591
aa(lp3103
F0.16659181777686172
aa(lp3104
F0.31702044529447448
aa(lp3105
F2.4828850526337192
aF2.8161257871961425
aF2.9826078978840087
aF3.3326110415364383
aF3.6322932759176183
aF4.131805368077039
aF4.3986004968246561
aF4.5819098143565498
aF4.8319040403002873
aF5.015233567031828
aF5.3648376591718261
aF5.7314652761015168
aF6.8143608503505675
aF7.2641891042258067
aF7.3809084645108669
aF8.1472625194382999
aF8.5303923921019305
aF8.8303023809639853
aa(lp3106
F0.60011862479950651
aF1.0498856095109659
aF1.3830143915183726
aF2.0330484584555961
aF2.7493135287459154
aF3.648932184340083
aF3.8988253642801283
aF4.298575540067759
aF5.2315573402393056
aF5.7980991803415236
aa(lp3107
F0.66674130170395074
aF2.2158442056697822
aF3.265689396777816
aF3.5156351847945189
aF3.965338334093758
aF4.2654465655905369
aF4.8319656302446674
aF5.1982144048615737
aF5.348268360219663
aF5.7482308930029831
aF6.0314724615964224
aF6.2977245081783622
aa(lp3108
F0.11708376745809801
aa(lp3109
F0.11708857917255955
aa(lp3110
F0.70002906275476562
aF1.0499308396247216
aF1.28321366065029
aF1.7663559796128538
aF2.0329207876329747
aF2.6160447579259198
aF2.9992407114659727
aF3.3158309894934064
aF3.5990465748291172
aF4.0494705189466913
aF4.598585291807467
aF4.9150103676402068
aF5.3982845275786531
aF5.6981540980414138
aa(lp3111
F1.1841417441246449
aF1.516479159503433
aF1.8165065541961667
aF2.2493475315259275
aF2.582743203292921
aF2.7325854432165215
aF3.2157778040109406
aF3.4489926194710279
aF3.8322014042514638
aa(lp3112
F0.083845727453081054
aa(lp3113
F0.23352148205958656
aa(lp3114
F0.28323386984993704
aa(lp3115
F0.13376822677491873
aa(lp3116
F0.68339528682918171
aF1.0832750581248547
aF1.3664428470983694
aF1.8330296606909542
aF2.2162259350116074
aF2.5493107700276596
aF2.7660711261214601
aF3.1158150787578052
aF3.3322681266909058
aa(lp3117
F0.11715626395380241
aa(lp3118
F0.11717711471646908
aa(lp3119
F0.10033098179519584
aa(lp3120
F0.93339785307762213
aF1.1833888712098997
aF1.5831894096081669
aF1.8996917936528916
aF2.1663242864542553
aF2.4495604017720325
aF2.5661562613877322
aF2.9491860503912903
aF3.7989739500189899
aF4.081893133747144
aa(lp3121
F0.066980026895180345
aatbsg18
g2603
(g2604
(I0
tS'b'
tRp3122
(I1
(I72
I1
tg2606
I00
(lp3123
NaNaNaNaNaNaNaNaNaNaNaNaNaNaNaNaNaNaNaNaNaNaNaNaNaNaNaNaNaNaNaNaNaNaNaNaNaNaNaNaNaNaNaNaNaNaNaNaNaNaNaNaNaNaNaNaNaNaNaNaNaNaNaNaNaNaNaNaNaNaNaNatbsg2782
g2613
(g2614
g2604
g2615
S'b'
tRp3124
(I1
(I72
I1
tg2617
I00
S'\x00\x000A\x00\x00\xb8A\x00\x00\x1cB\x00\x00\xc0A\x00\x00XB\x00\x00\x08B\x00\x00\x86B\x00\x00@A\x00\x00\xf8A\x00\x00<B\x00\x00\x80?\x00\x00@B\x00\x00DB\x00\x00PA\x00\x000B\x00\x00\xe0@\x00\x00\\B\x00\x00`A\x00\x00\xe0A\x00\x00\xd0A\x00\x00\x18B\x00\x00\xb0A\x00\x00pA\x00\x00\xe8A\x00\x00\x80A\x00\x00\x0cB\x00\x00\x00@\x00\x00\x88B\x00\x00`B\x00\x00\x00B\x00\x00xB\x00\x00\xa0@\x00\x00\x88A\x00\x00 A\x00\x00PB\x00\x00@@\x00\x00(B\x00\x00\x84B\x00\x00pB\x00\x00tB\x00\x00\x80B\x00\x00\x04B\x00\x00\x90A\x00\x00\x00\x00\x00\x00\x82B\x00\x00\xc0@\x00\x00\x00A\x00\x00\x10A\x00\x00\x8aB\x00\x00\x98A\x00\x00hB\x00\x00LB\x00\x00\xf0A\x00\x00,B\x00\x008B\x00\x00\xa8A\x00\x00\xa0A\x00\x00\x80@\x00\x00dB\x00\x00$B\x00\x00|B\x00\x00HB\x00\x00\x8cB\x00\x00\xd8A\x00\x00 B\x00\x00lB\x00\x004B\x00\x00\x10B\x00\x00\x8eB\x00\x00TB\x00\x00\xc8A\x00\x00\x14B'
S'\x00\x00\x00\x00\x00\x00\x00\x00\x00\x00\x00\x00\x00\x00\x00\x00\x00\x00\x00\x00\x00\x00\x00\x00\x00\x00\x00\x00\x00\x00\x00\x00\x00\x00\x00\x00\x00\x00\x00\x00\x00\x00\x00\x00\x00\x00\x00\x00\x00\x00\x00\x00\x00\x00\x00\x00\x00\x00\x00\x00\x00\x00\x00\x00\x00\x00\x00\x00\x00\x00\x00\x00'
NtbstRp3125
(dp3126
g2786
(dp3127
g16
I00
sg20
I00
sg17
I01
sg2618
I01
sg25
I00
sg22
I00
sg27
I00
sg19
I00
sg23
I00
sg21
I00
sg24
I00
sg28
I00
sg18
I00
sg2782
I01
ssg2597
g2951
sg2788
(lp3128
g2618
ag2782
ag16
ag17
ag18
ag19
ag20
ag21
ag22
ag23
ag24
ag25
ag27
ag28
asg2790
(lp3129
I72
aI1
asbsg2792
g2793
sg2794
g2603
(g2604
(I0
tS'b'
tRp3130
(I1
(I72
I1
tg60
I01
S'+\x00\x00\x00\n\x00\x00\x00\x1a\x00\x00\x00#\x00\x00\x009\x00\x00\x00\x1f\x00\x00\x00-\x00\x00\x00\x0f\x00\x00\x00.\x00\x00\x00/\x00\x00\x00!\x00\x00\x00\x00\x00\x00\x00\x07\x00\x00\x00\r\x00\x00\x00\x11\x00\x00\x00\x16\x00\x00\x00\x18\x00\x00\x00 \x00\x00\x00*\x00\x00\x001\x00\x00\x008\x00\x00\x007\x00\x00\x00\x15\x00\x00\x00\x01\x00\x00\x00\x03\x00\x00\x00F\x00\x00\x00\x13\x00\x00\x00?\x00\x00\x00\x12\x00\x00\x00\x17\x00\x00\x004\x00\x00\x00\x08\x00\x00\x00\x1d\x00\x00\x00)\x00\x00\x00\x05\x00\x00\x00\x19\x00\x00\x00C\x00\x00\x00G\x00\x00\x00\x14\x00\x00\x00\x02\x00\x00\x00@\x00\x00\x00;\x00\x00\x00$\x00\x00\x005\x00\x00\x00\x0e\x00\x00\x00B\x00\x00\x006\x00\x00\x00\t\x00\x00\x00\x0b\x00\x00\x00\x0c\x00\x00\x00=\x00\x00\x003\x00\x00\x00"\x00\x00\x00E\x00\x00\x00\x04\x00\x00\x00\x10\x00\x00\x00\x1c\x00\x00\x00:\x00\x00\x002\x00\x00\x00A\x00\x00\x00&\x00\x00\x00\'\x00\x00\x00\x1e\x00\x00\x00<\x00\x00\x00(\x00\x00\x00,\x00\x00\x00%\x00\x00\x00\x06\x00\x00\x00\x1b\x00\x00\x000\x00\x00\x00>\x00\x00\x00D\x00\x00\x00'
tbsg2796
I01
sg2797
I1
sg2798
I-1
sg2799
(lp3131
g1
(g2801
g2601
(dp3132
g915
g1042
sg913
g1041
stRp3133
ag1
(g2801
g2601
(dp3134
g915
g1189
sg913
g1188
stRp3135
ag1
(g2801
g2601
(dp3136
g915
g1376
sg913
g1375
stRp3137
ag1
(g2801
g2601
(dp3138
g915
g1200
sg913
g1199
stRp3139
ag1
(g2801
g2601
(dp3140
g915
g1548
sg913
g1547
stRp3141
ag1
(g2801
g2601
(dp3142
g915
g1319
sg913
g1318
stRp3143
ag1
(g2801
g2601
(dp3144
g915
g1700
sg913
g1699
stRp3145
ag1
(g2801
g2601
(dp3146
g915
g1053
sg913
g1052
stRp3147
ag1
(g2801
g2601
(dp3148
g915
g1286
sg913
g1285
stRp3149
ag1
(g2801
g2601
(dp3150
g915
g1469
sg913
g1468
stRp3151
ag1
(g2801
g2601
(dp3152
g915
g927
sg913
g926
stRp3153
ag1
(g2801
g2601
(dp3154
g915
g1480
sg913
g1479
stRp3155
ag1
(g2801
g2601
(dp3156
g915
g1491
sg913
g1490
stRp3157
ag1
(g2801
g2601
(dp3158
g915
g1069
sg913
g1068
stRp3159
ag1
(g2801
g2601
(dp3160
g915
g1435
sg913
g1434
stRp3161
ag1
(g2801
g2601
(dp3162
g915
g997
sg913
g996
stRp3163
ag1
(g2801
g2601
(dp3164
g915
g1560
sg913
g1559
stRp3165
ag1
(g2801
g2601
(dp3166
g915
g1082
sg913
g1081
stRp3167
ag1
(g2801
g2601
(dp3168
g915
g1249
sg913
g1248
stRp3169
ag1
(g2801
g2601
(dp3170
g915
g1225
sg913
g1224
stRp3171
ag1
(g2801
g2601
(dp3172
g915
g1363
sg913
g1362
stRp3173
ag1
(g2801
g2601
(dp3174
g915
g1178
sg913
g1177
stRp3175
ag1
(g2801
g2601
(dp3176
g915
g1094
sg913
g1093
stRp3177
ag1
(g2801
g2601
(dp3178
g915
g1262
sg913
g1261
stRp3179
ag1
(g2801
g2601
(dp3180
g915
g1105
sg913
g1104
stRp3181
ag1
(g2801
g2601
(dp3182
g915
g1330
sg913
g1329
stRp3183
ag1
(g2801
g2601
(dp3184
g915
g938
sg913
g937
stRp3185
ag1
(g2801
g2601
(dp3186
g915
g1712
sg913
g1711
stRp3187
ag1
(g2801
g2601
(dp3188
g915
g1576
sg913
g1575
stRp3189
ag1
(g2801
g2601
(dp3190
g915
g1297
sg913
g1296
stRp3191
ag1
(g2801
g2601
(dp3192
g915
g1643
sg913
g1642
stRp3193
ag1
(g2801
g2601
(dp3194
g915
g975
sg913
g974
stRp3195
ag1
(g2801
g2601
(dp3196
g915
g1116
sg913
g1115
stRp3197
ag1
(g2801
g2601
(dp3198
g915
g1031
sg913
g1030
stRp3199
ag1
(g2801
g2601
(dp3200
g915
g1526
sg913
g1525
stRp3201
ag1
(g2801
g2601
(dp3202
g915
g949
sg913
g948
stRp3203
ag1
(g2801
g2601
(dp3204
g915
g1409
sg913
g1408
stRp3205
ag1
(g2801
g2601
(dp3206
g915
g1689
sg913
g1688
stRp3207
ag1
(g2801
g2601
(dp3208
g915
g1620
sg913
g1619
stRp3209
ag1
(g2801
g2601
(dp3210
g915
g1632
sg913
g1631
stRp3211
ag1
(g2801
g2601
(dp3212
g915
g1667
sg913
g1666
stRp3213
ag1
(g2801
g2601
(dp3214
g915
g1308
sg913
g1307
stRp3215
ag1
(g2801
g2601
(dp3216
g915
g1128
sg913
g1127
stRp3217
ag1
(g2801
g2601
(dp3218
g915
g916
sg913
g914
stRp3219
ag1
(g2801
g2601
(dp3220
g915
g1678
sg913
g1677
stRp3221
ag1
(g2801
g2601
(dp3222
g915
g986
sg913
g985
stRp3223
ag1
(g2801
g2601
(dp3224
g915
g1009
sg913
g1008
stRp3225
ag1
(g2801
g2601
(dp3226
g915
g1020
sg913
g1019
stRp3227
ag1
(g2801
g2601
(dp3228
g915
g1723
sg913
g1722
stRp3229
ag1
(g2801
g2601
(dp3230
g915
g1140
sg913
g1139
stRp3231
ag1
(g2801
g2601
(dp3232
g915
g1598
sg913
g1597
stRp3233
ag1
(g2801
g2601
(dp3234
g915
g1514
sg913
g1513
stRp3235
ag1
(g2801
g2601
(dp3236
g915
g1275
sg913
g1274
stRp3237
ag1
(g2801
g2601
(dp3238
g915
g1424
sg913
g1423
stRp3239
ag1
(g2801
g2601
(dp3240
g915
g1458
sg913
g1457
stRp3241
ag1
(g2801
g2601
(dp3242
g915
g1164
sg913
g1163
stRp3243
ag1
(g2801
g2601
(dp3244
g915
g1151
sg913
g1150
stRp3245
ag1
(g2801
g2601
(dp3246
g915
g961
sg913
g960
stRp3247
ag1
(g2801
g2601
(dp3248
g915
g1587
sg913
g1586
stRp3249
ag1
(g2801
g2601
(dp3250
g915
g1398
sg913
g1397
stRp3251
ag1
(g2801
g2601
(dp3252
g915
g1654
sg913
g1653
stRp3253
ag1
(g2801
g2601
(dp3254
g915
g1502
sg913
g1501
stRp3255
ag1
(g2801
g2601
(dp3256
g915
g1734
sg913
g1733
stRp3257
ag1
(g2801
g2601
(dp3258
g915
g1238
sg913
g1237
stRp3259
ag1
(g2801
g2601
(dp3260
g915
g1387
sg913
g1386
stRp3261
ag1
(g2801
g2601
(dp3262
g915
g1609
sg913
g1608
stRp3263
ag1
(g2801
g2601
(dp3264
g915
g1446
sg913
g1445
stRp3265
ag1
(g2801
g2601
(dp3266
g915
g1341
sg913
g1340
stRp3267
ag1
(g2801
g2601
(dp3268
g915
g1745
sg913
g1744
stRp3269
ag1
(g2801
g2601
(dp3270
g915
g1537
sg913
g1536
stRp3271
ag1
(g2801
g2601
(dp3272
g915
g1212
sg913
g1211
stRp3273
ag1
(g2801
g2601
(dp3274
g915
g1352
sg913
g1351
stRp3275
asg2946
Nsg2947
g1743
sg2948
I72
sg2949
I0
sg2950
I72
sbag1
(g2590
g3
NtRp3276
(dp3277
g2593
Nsg2594
(lp3278
sg2596
I357510768
sg10
g2597
sg6
I-1
sg2598
I1
sg29
I01
sg30
g31
sg2599
g1
(g2600
g2601
(dp3279
g16
g2603
(g2604
(I0
tS'b'
tRp3280
(I1
(I72
I1
tg2606
I00
(lp3281
g176
ag176
ag176
ag67
ag176
ag176
ag67
ag176
ag67
ag67
ag176
ag67
ag67
ag67
ag67
ag67
ag67
ag67
ag67
ag176
ag67
ag176
ag67
ag176
ag176
ag67
ag67
ag67
ag176
ag67
ag67
ag176
ag176
ag67
ag176
ag67
ag176
ag176
ag176
ag67
ag67
ag176
ag67
ag67
ag176
ag176
ag67
ag67
ag67
ag176
ag67
ag176
ag176
ag67
ag176
ag176
ag176
ag67
ag67
ag176
ag67
ag67
ag67
ag67
ag176
ag67
ag67
ag176
ag176
ag176
ag67
ag67
atbsg20
g2603
(g2604
(I0
tS'b'
tRp3282
(I1
(I72
I1
tg2606
I00
(lp3283
NaNaNaNaNaNaNaNaF0.45600000000000002
aF2.8719999999999999
aF0.90600000000000003
aNaF0.61499999999999999
aF3.5379999999999998
aF0.55600000000000005
aF0.71899999999999997
aF0.44900000000000001
aF1.173
aF0.98799999999999999
aNaF6.5369999999999999
aNaF0.41699999999999998
aNaNaNaF1.2709999999999999
aNaNaNaNaNaNaF0.47299999999999998
aNaF4.6040000000000001
aNaNaNaNaF0.40600000000000003
aNaF0.40600000000000003
aF0.68899999999999995
aNaNaF0.75600000000000001
aF0.97299999999999998
aF3.9550000000000001
aNaF1.1559999999999999
aNaNaF1.472
aNaNaNaF2.306
aF0.93899999999999995
aNaF2.1779999999999999
aF0.44
aF1.389
aF3.7389999999999999
aNaF2.5550000000000002
aNaNaNaF3.0049999999999999
aNaF1.456
atbsg17
g2613
(g2614
g2604
g2615
S'b'
tRp3284
(I1
(I72
I1
tg2617
I00
S'\xfe\xd4x?w\xbe\x7f?\xc5 p?L7\xa9?\'1\xb8?\xe3\xa5\x9b?J\x0c\x02@\x8d\x97\x9e?\x10X\xa9?\xdd$\x96?\xcb\xa1\x05@L7\x89?\xc5 \xa0@h\x91\x8d?\xcf\xf7\xb3?\xe5\xd0DA=\n\xd7@\xf4\xfd\xa4?\xd9\xcew@\x96C\x9b?\n\xd7\x93?\x81\x95c?;\xdf\xab@Zd\x8b?\x10X\xa9?P\x8dw?\x9c\xc4\xa0?\xcf\xf7\x93?\xa2E\x86?\xf4\xfd\x84?\xb4\xc8\xb6?Zd\x8b?\x02+\x87?\xd1"[?\x9c\xc4\x80?\xfe\xd4\xf8?D\x8b\xdc?\x10X\xa9?%\x06\xb1?-\xb2\x15@\xa6\x9b\x04@\xcf\xf7\x93?\xb2\x9d\xaf?\xf4\xfd\xa4?\xa4p}?\x10X\x89?\x96C\x8b?\x83\xc0\x8a?h\x91\x8d?\x10X\x89?\x8bl\x07@\xc9v\x9e?\xd7\xa3p?sh\x01@\xcf\xf7\x93?`\xe5\x80?\x9a\x99\xb9?\x1f\x85\x8b?\xc7K\x1f@\x0c\x02\x8b?J\x0c\x18A\xb2\x9d\x8f?=\n\xa7?Zd\xab?\xee|_?\x10Xa@\xe9&\xd1?1\x08l?h\x91\x8d?`\xe5\x80?\x93\x18\x1c@\x7fj\xdc?'
S'\x00\x00\x00\x00\x00\x00\x00\x00\x00\x00\x00\x00\x00\x00\x00\x00\x00\x00\x00\x00\x00\x00\x00\x00\x00\x00\x00\x00\x00\x00\x00\x00\x00\x00\x00\x00\x00\x00\x00\x00\x00\x00\x00\x00\x00\x00\x00\x00\x00\x00\x00\x00\x00\x00\x00\x00\x00\x00\x00\x00\x00\x00\x00\x00\x00\x00\x00\x00\x00\x00\x00\x00'
Ntbsg2618
g2613
(g2614
g2604
g2615
S'b'
tRp3285
(I1
(I72
I1
tg2617
I00
S'\x00\x00\x80?\x00\x00\x80?\x00\x00\x80?\x00\x00\x80?\x00\x00\x80?\x00\x00\x80?\x00\x00\x80?\x00\x00\x80?\x00\x00\x80?\x00\x00\x80?\x00\x00\x80?\x00\x00\x80?\x00\x00\x80?\x00\x00\x80?\x00\x00\x80?\x00\x00\x80?\x00\x00\x80?\x00\x00\x80?\x00\x00\x80?\x00\x00\x80?\x00\x00\x80?\x00\x00\x80?\x00\x00\x80?\x00\x00\x80?\x00\x00\x80?\x00\x00\x80?\x00\x00\x80?\x00\x00\x80?\x00\x00\x80?\x00\x00\x80?\x00\x00\x80?\x00\x00\x80?\x00\x00\x80?\x00\x00\x80?\x00\x00\x80?\x00\x00\x80?\x00\x00\x80?\x00\x00\x80?\x00\x00\x80?\x00\x00\x80?\x00\x00\x80?\x00\x00\x80?\x00\x00\x80?\x00\x00\x80?\x00\x00\x80?\x00\x00\x80?\x00\x00\x80?\x00\x00\x80?\x00\x00\x80?\x00\x00\x80?\x00\x00\x80?\x00\x00\x80?\x00\x00\x80?\x00\x00\x80?\x00\x00\x80?\x00\x00\x80?\x00\x00\x80?\x00\x00\x80?\x00\x00\x80?\x00\x00\x80?\x00\x00\x80?\x00\x00\x80?\x00\x00\x80?\x00\x00\x80?\x00\x00\x80?\x00\x00\x80?\x00\x00\x80?\x00\x00\x80?\x00\x00\x80?\x00\x00\x80?\x00\x00\x80?\x00\x00\x80?'
S'\x00\x00\x00\x00\x00\x00\x00\x00\x00\x00\x00\x00\x00\x00\x00\x00\x00\x00\x00\x00\x00\x00\x00\x00\x00\x00\x00\x00\x00\x00\x00\x00\x00\x00\x00\x00\x00\x00\x00\x00\x00\x00\x00\x00\x00\x00\x00\x00\x00\x00\x00\x00\x00\x00\x00\x00\x00\x00\x00\x00\x00\x00\x00\x00\x00\x00\x00\x00\x00\x00\x00\x00'
Ntbsg25
g2603
(g2604
(I0
tS'b'
tRp3286
(I1
(I72
I1
tg2606
I00
(lp3287
NaNaNaNaNaNaNaNaNaNaNaNaNaNaNaNaNaNaNaNaNaNaNaNaNaNaNaNaNaNaNaNaNaNaNaNaNaNaNaNaNaNaNaNaNaNaNaNaNaNaNaNaNaNaNaNaNaNaNaNaNaNaNaNaNaNaNaNaNaNaNaNatbsg22
g2603
(g2604
(I0
tS'b'
tRp3288
(I1
(I72
I1
tg2606
I00
(lp3289
NaNaNaNaF1.5049999999999999
aNaF0.57199999999999995
aNaNaNaNaNaNaNaNaNaNaNaNaF0.55600000000000005
aNaNaNaNaF0.60599999999999998
aNaNaF0.85599999999999998
aNaNaNaNaNaNaNaNaF0.63900000000000001
aF1.0389999999999999
aNaF0.67200000000000004
aNaNaNaNaF0.98899999999999999
aNaNaNaNaNaNaF0.93899999999999995
aF7.6539999999999999
aNaF0.77200000000000002
aNaNaNaNaF1.2050000000000001
aNaNaNaNaNaNaNaF0.68899999999999995
aF0.60599999999999998
aNaF2.222
aNatbsg27
g2603
(g2604
(I0
tS'b'
tRp3290
(I1
(I72
I1
tg2606
I00
(lp3291
(lp3292
g1795
aa(lp3293
g2242
aa(lp3294
g2540
aa(lp3295
S'm'
aS'e'
aS'r'
aS'k'
aS'e'
aS'l'
ag2092
aa(lp3296
S'r'
aS'e'
aS'p'
ag1994
aa(lp3297
g2459
aa(lp3298
g2128
aa(lp3299
g2017
aa(lp3300
g2275
aa(lp3301
S'c'
aS'h'
aS'y'
aS'u'
ag1880
aS'l'
aS'o'
aS'r'
aS'i'
ag1881
aa(lp3302
g1773
aa(lp3303
S'o'
aS'b'
aS'a'
aS'm'
aS'a'
ag2006
aa(lp3304
S'n'
ag2066
aS'b'
aS'a'
aS'r'
aS'n'
aS'i'
ag2067
aS's'
aS't'
aS'i'
aS'n'
aS's'
aS'o'
aS'n'
ag2068
aa(lp3305
S't'
aS'e'
aS'd'
ag2230
aS'm'
aS'o'
aS's'
aS'b'
aS'i'
ag2231
aa(lp3306
g2207
aa(lp3307
S't'
aS'e'
aS'd'
ag1970
aS'm'
aS'o'
aS's'
aS'b'
aS'i'
ag1971
aa(lp3308
S'm'
aS'a'
aS'r'
aS's'
aS'h'
aS'a'
aS'k'
ag1807
aS'l'
ag1808
aS'e'
aS'r'
aS'i'
aS'k'
aS's'
aS'o'
aS'n'
ag1809
aa(lp3309
S'm'
aS'a'
aS'r'
aS's'
aS'h'
aS'a'
aS'l'
ag2029
aa(lp3310
S'm'
aS'a'
aS'r'
aS's'
aS'h'
aS'a'
aS'l'
ag2104
aa(lp3311
g1903
aa(lp3312
S'c'
aS'h'
aS'y'
aS'u'
ag2116
aS'l'
aS'o'
aS'r'
aS'i'
ag2117
aa(lp3313
g2342
aa(lp3314
g2388
aa(lp3315
g2518
aa(lp3316
g2529
aa(lp3317
S'o'
aS'b'
aS'a'
aS'm'
aS'a'
ag2484
aa(lp3318
S'l'
aS'e'
aS'o'
aS'n'
aS'a'
aS'r'
aS'd'
aS'o'
ag2354
aa(lp3319
g2411
aa(lp3320
g2054
aa(lp3321
S'o'
aS'b'
aS'a'
aS'm'
aS'a'
ag2309
aa(lp3322
S'm'
aS'e'
aS'r'
aS'k'
aS'e'
aS'l'
ag1821
aa(lp3323
g2585
aa(lp3324
g2163
aa(lp3325
g1784
aa(lp3326
g2196
aa(lp3327
g1892
aa(lp3328
g1947
aa(lp3329
g2434
aa(lp3330
g1845
aa(lp3331
g2218
aa(lp3332
g2253
aa(lp3333
g2574
aa(lp3334
g2331
aa(lp3335
S's'
aS'p'
aS'i'
aS'r'
aS's'
ag2552
aa(lp3336
g2365
aa(lp3337
g2174
aa(lp3338
S'c'
aS'h'
aS'y'
aS'u'
ag2471
aS'l'
aS'o'
aS'r'
aS'i'
ag2472
aa(lp3339
S'd'
aS'o'
ag2041
aS'i'
ag2042
aS'k'
aS'a'
aS'p'
aS'r'
aS'i'
aS'o'
ag2043
aa(lp3340
S'b'
aS'a'
aS'r'
aS'n'
aS'i'
ag1857
aa(lp3341
g2185
aa(lp3342
S'l'
aS'i'
aS'l'
aS'i'
ag2080
aa(lp3343
g1936
aa(lp3344
g1868
aa(lp3345
S'l'
aS'e'
aS'o'
aS'n'
aS'a'
aS'r'
aS'd'
aS'o'
ag2496
aa(lp3346
g1958
aa(lp3347
g2507
aa(lp3348
g1762
aa(lp3349
g2320
aa(lp3350
S'l'
aS'i'
aS'l'
aS'i'
ag2152
aa(lp3351
g1982
aa(lp3352
S'l'
aS'i'
aS'l'
aS'i'
ag1833
aS'o'
aS'l'
aS'd'
aS'r'
aS'i'
aS'n'
ag1834
aa(lp3353
g2563
aa(lp3354
S'm'
aS'o'
aS's'
aS'b'
aS'i'
ag2377
aa(lp3355
g1914
aa(lp3356
g2286
aa(lp3357
S'b'
aS'a'
aS'r'
aS'n'
aS'i'
ag2140
aa(lp3358
S'm'
aS'e'
aS'r'
aS'k'
aS'e'
aS'l'
ag2400
aa(lp3359
g2264
aa(lp3360
g2297
aa(lp3361
S'v'
ag2446
aS'c'
aS'o'
aS'm'
aS'e'
aS'd'
aS'i'
aS'e'
aS'm'
ag2447
aS'n'
ag2448
aa(lp3362
S's'
aS'p'
aS'i'
aS'r'
aS's'
ag2423
aa(lp3363
g1925
aatbsg19
g2603
(g2604
(I0
tS'b'
tRp3364
(I1
(I72
I1
tg2606
I00
(lp3365
NaNaNaNaNaNaNaNag106
ag71
ag71
aNag71
ag106
ag71
ag71
ag71
ag71
ag71
aNag106
aNag71
aNaNaNag71
aNaNaNaNaNaNag106
aNag71
aNaNaNaNag71
aNag106
ag106
aNaNag106
ag71
ag71
aNag106
aNaNag71
aNaNaNag71
ag106
aNag71
ag106
ag71
ag106
aNag106
aNaNaNag71
aNag71
atbsg23
g2603
(g2604
(I0
tS'b'
tRp3366
(I1
(I72
I1
tg2606
I00
(lp3367
g132
ag321
ag132
ag132
aNag321
aNag321
aNaNaNag132
aNaNaNaNaNaNaNaNaNag132
aNag132
aNag132
aNaNag132
ag132
ag132
ag132
ag132
aNag132
aNaNaNag132
aNaNag321
aNaNaNag132
aNaNaNag321
aNaNaNaNaNag132
ag132
aNaNaNaNaNaNaNag132
aNag132
aNaNaNaNaNatbsg21
g2603
(g2604
(I0
tS'b'
tRp3368
(I1
(I72
I1
tg2606
I00
(lp3369
NaNaNaNag120
aNag120
aNaNaNaNaNaNaNaNaNaNaNaNag120
aNaNaNaNag120
aNaNag181
aNaNaNaNaNaNaNaNag120
ag120
aNag120
aNaNaNaNag120
aNaNaNaNaNaNag120
ag181
aNag181
aNaNaNaNag120
aNaNaNaNaNaNaNag120
ag120
aNag120
aNatbsg24
g2603
(g2604
(I0
tS'b'
tRp3370
(I1
(I72
I1
tg2606
I00
(lp3371
F0.52200000000000002
aF0.80600000000000005
aF0.623
aF0.78900000000000003
aNaF0.57299999999999995
aNaF0.70599999999999996
aNaNaNaF0.82299999999999995
aNaNaNaNaNaNaNaNaNaF1.1559999999999999
aNaF0.90600000000000003
aNaF0.621
aNaNaF0.67300000000000004
aF0.48999999999999999
aF1.2390000000000001
aF0.58899999999999997
aF0.83899999999999997
aNaF0.63900000000000001
aNaNaNaF0.70599999999999996
aNaNaF0.67300000000000004
aNaNaNaF0.57199999999999995
aNaNaNaF0.83899999999999997
aNaNaNaNaNaF0.67200000000000004
aS'2.70499992371'
p3372
aNaNaNaNaNaNaNaF0.72199999999999998
aNaF0.92200000000000004
aNaNaNaNaNatbsg28
g2603
(g2604
(I0
tS'b'
tRp3373
(I1
(I72
I1
tg2606
I00
(lp3374
(lp3375
F0.10002271129269502
aa(lp3376
F0.10037172097690927
aa(lp3377
F0.083556703808426391
aa(lp3378
F0.46679660433983372
aF0.83333311947899347
aF0.98336109157753526
aF1.2830863106082688
aF1.6330782269269548
aF2.0661440717103687
aF2.332711445977111
aa(lp3379
F2.1162744370940345
aF2.2660165933575627
aF2.9327351196134259
aF3.1991767477429676
aa(lp3380
F0.18387100499421649
aa(lp3381
F0.11706291669543134
aa(lp3382
F0.116958662882098
aa(lp3383
F0.2004813639105123
aa(lp3384
F0.56644303956636577
aF0.83341620174724085
aF1.7830122102059249
aF2.0996005635479378
aF2.6492831187097181
aF3.082533412543853
aF3.2324282605459302
aF3.7488644353998097
aF4.015751949065816
aF4.3319428547965799
aa(lp3385
F0.13357351273225504
aa(lp3386
F0.25024218962607847
aF0.81702557779135532
aF1.2002507223987777
aF1.4998704044919577
aF1.8998460892962612
aF2.2997021228002268
aa(lp3387
F0.81667368107628135
aF1.3498446778594371
aF1.7996206444367999
aF2.3661499740810541
aF2.565991700754239
aF2.8993787114359293
aF3.1325361071048974
aF3.4989561787551793
aF4.0821333986878017
aF4.3820392173965956
aF4.6485488510897994
aF5.1483608734470181
aF5.5482197939818434
aF5.8814688688489696
aF6.2812546513232519
aF6.6308978787401429
aa(lp3388
F0.98327159369182482
aF1.2000014755922166
aF1.6162888722374191
aF1.9996888424684585
aF2.6827951056529855
aF2.9324823442166235
aF3.3156760522906552
aF3.698883553945052
aF3.9822479816466512
aF4.2321177445774083
aa(lp3389
F0.55007679496156925
aa(lp3390
F0.51709473816481477
aF0.80034849643561756
aF1.4165087355067953
aF2.0497880920975149
aF2.4828802409192576
aF2.7495383961977495
aF4.931988983098563
aF5.2485654675438127
aF5.5649215754692705
aF5.8314530222687608
aa(lp3391
F1.0995697685757477
aF1.4995470572830527
aF1.7331990971943014
aF2.1996367476403975
aF3.1656272294276278
aF3.532367761255955
aF3.8488794479490025
aF4.7315287907331367
aF5.1982522570142464
aF5.5315173709313967
aF6.9809494603177882
aF7.1476984607652412
aF7.430882288785142
aF8.0472478276715265
aF8.6969370550759777
aF8.9968752726636012
aF9.3133847138888086
aF9.5967035906942328
aa(lp3392
F4.8152381862782931
aF5.8314796470895089
aF6.0980826280429028
aF6.9975517997081624
aF7.2808450140364585
aF7.5808890893404168
aF7.9142607025351026
aF8.1636794474343333
aa(lp3393
F0.35033418960483687
aF0.73348491303113406
aF1.0001023291260935
aF2.3160731791194848
aF2.548972025335388
aF2.8160311568135512
aF3.1325345032000769
aF3.3992587393568101
aa(lp3394
F0.066972328151678084
aa(lp3395
F2.0494788592513942
aF3.0825956440512527
aF3.4322863470497396
aF3.7322579258561746
aF4.0323408156564255
aF4.3486949988964625
aF4.4986902513392124
aF4.8317609719924803
aF5.0818001072693733
aF5.3316955326772586
aa(lp3396
F0.10031141415674938
aa(lp3397
F6.131422676391594
aa(lp3398
F0.083434165480866795
aa(lp3399
F0.13379741784228827
aa(lp3400
F0.48328121711892891
aF1.1832368210343702
aF1.6164152599340014
aF1.9329295128736703
aF2.2996020391401544
aF2.7159301749670703
aa(lp3401
F0.60029569588914455
aF1.0001087447453756
aF1.333191655076007
aF1.8664559991175338
aF2.3830150330777542
aF2.6328190359108703
aF2.8326954069289059
aF3.2991943265387818
aF3.8490959750961338
aa(lp3402
F0.083543551789261983
aa(lp3403
F0.10045544480817625
aa(lp3404
F0.53348119197107735
aF1.0998927950040525
aF1.4165510785951483
aF1.7829685839969898
aF2.1161692209389003
aF2.4825158337480389
aa(lp3405
F0.53367622679434135
aF0.89999910181359155
aF1.0500575481055421
aF1.3166589251541154
aF1.6496956430255523
aF1.9496556737176434
aF2.2161961023830372
aa(lp3406
F0.10013979634277348
aa(lp3407
F0.25023449088257621
aa(lp3408
F0.13346316408023995
aa(lp3409
F0.31712437832538853
aa(lp3410
F53.412716462991739
aa(lp3411
F0.13352154621679801
aa(lp3412
F0.117045594523006
aa(lp3413
F0.15038083115541667
aa(lp3414
F0.06698387626602198
aa(lp3415
F0.10039481720559706
aa(lp3416
F0.083827122160073486
aa(lp3417
F0.083699451335633057
aa(lp3418
F1.0000150767045852
aF1.5662441553704411
aF1.7662950312314933
aF2.382707404138273
aF2.6159658458091144
aF2.9494009736336011
aa(lp3419
F0.15040873910038499
aa(lp3420
F0.23347593116341159
aa(lp3421
F1.8829483106401312
aF2.0660837648902088
aF2.449513246971037
aF2.7658578067821509
aF3.115868969960502
aF3.4490660783121712
aF3.6156213270587614
aF4.815118214199174
aF5.0649892602541513
aF5.3483344410979043
aa(lp3422
F0.81674938538344577
aF1.4330379368402646
aF2.1329611418768764
aF2.5160910145405069
aF2.8326543469665921
aF3.6323972089485324
aF3.9820978561565425
aF4.3819224531271175
aF4.8318726037668966
aF5.1148575475908729
aF5.2649926605317887
aF5.8147621473326581
aa(lp3423
F0.96594428932985466
aF1.8660944789753557
aF2.133751546165513
aF2.449423107522307
aF2.7154259072976856
aF3.3156731652616145
aa(lp3424
F0.16706849828369741
aa(lp3425
F0.30057657169709273
aF0.46695154154440388
aF0.63346605110928067
aF0.8167519516300672
aF1.2333719981306785
aa(lp3426
F0.13336404276378744
aa(lp3427
F0.21695603247826512
aa(lp3428
F0.80002290376069141
aF1.5999290432519047
aF1.9161600466031814
aF2.4995451325994509
aF2.9326035994199628
aF3.1489543182251509
aF3.3492265329496149
aF3.6488487812894164
aF3.9154305906995432
aa(lp3429
F0.10063636527047493
aa(lp3430
F0.16674354717179085
aa(lp3431
F0.11736733782709052
aa(lp3432
F0.48364402038714616
aa(lp3433
F0.21701730164204491
aF0.4670153769566241
aF0.65012869732163381
aF0.85063444058323512
aF1.2666838177556201
aa(lp3434
F0.10034124678713852
aa(lp3435
F0.56667432263748196
aF0.71682836165564368
aF0.88330662297084928
aF1.0332803830879129
aF3.7656569979008054
aF4.2654218654552096
aF4.4320932369100774
aF4.9983303351000359
aF5.1651066019276186
aF5.4648715977964457
aF5.7482203072304401
aF6.2811337169005128
aa(lp3436
F0.91638555561803514
aa(lp3437
F0.63355426587440888
aF0.86646049005139503
aF2.0330025867788208
aF2.3162252292950143
aF2.6326955352433288
aF2.8989552805687708
aa(lp3438
F0.15031025934513309
aa(lp3439
F0.083466243577277055
aa(lp3440
F0.53362810965154495
aF0.86685280516576313
aF1.100071469998511
aF1.499774170204546
aF1.7329979675323557
aF1.9996368759530014
aa(lp3441
F0.50028677817863354
aF0.90041258847122663
aF1.0335668404859462
aF1.3335457972552831
aF1.6501277349780139
aF1.9664517648070614
aF2.2160350703397853
aa(lp3442
F0.10043266936008877
aa(lp3443
F0.1006074949818867
aa(lp3444
F1.3167041552678711
aF1.8332506787719467
aF2.2996610628360941
aF2.6496590739952808
aF2.8996520168129791
aF3.4160477732657455
aF3.5823101489950204
aF3.8324923525815393
aF4.1656429476934136
aF4.4654666464775801
aF4.981713560564458
aF5.4486551579011575
aF5.731644592658995
aa(lp3445
F0.4503225773351005
aF1.0001597489190317
aF1.5158565236579307
aF1.9998287029666244
aF2.3495867699675728
aF2.9159313297786866
aa(lp3446
F0.18339272058256029
aatbsg18
g2603
(g2604
(I0
tS'b'
tRp3447
(I1
(I72
I1
tg2606
I00
(lp3448
NaNaNaNaNaNaNaNaNaNaNaNaNaNaNaNaNaNaNaNaNaNaNaNaNaNaNaNaNaNaNaNaNaNaNaNaNaNaNaNaNaNaNaNaNaNaNaNaNaNaNaNaNaNaNaNaNaNaNaNaNaNaNaNaNaNaNaNaNaNaNaNatbsg2782
g2613
(g2614
g2604
g2615
S'b'
tRp3449
(I1
(I72
I1
tg2617
I00
S'\x00\x00@@\x00\x00$B\x00\x00\x86B\x00\x00\xe0A\x00\x00\xa0A\x00\x00pB\x00\x00\xf8A\x00\x00\xb0A\x00\x000B\x00\x00 A\x00\x00\x80?\x00\x00\xa8A\x00\x00\xd0A\x00\x00 B\x00\x00\x18B\x00\x00\x90A\x00\x00\x80@\x00\x00\xb8A\x00\x00\xe8A\x00\x00@A\x00\x00\xf0A\x00\x00HB\x00\x00XB\x00\x00\x82B\x00\x00\x84B\x00\x00xB\x00\x00LB\x00\x00`B\x00\x00\xc8A\x00\x00<B\x00\x00\xa0@\x00\x00\x8eB\x00\x00\x08B\x00\x00\x00@\x00\x00\x14B\x00\x000A\x00\x00\x80A\x00\x00hB\x00\x00\xe0@\x00\x00\x1cB\x00\x00(B\x00\x00\x8cB\x00\x00DB\x00\x00\x88B\x00\x00PB\x00\x00\x0cB\x00\x00tB\x00\x00\xc0A\x00\x00\x00A\x00\x00\x10B\x00\x00\xd8A\x00\x00pA\x00\x00\x10A\x00\x00|B\x00\x00\x88A\x00\x00\x80B\x00\x00\x00\x00\x00\x00@B\x00\x00\x04B\x00\x00\x98A\x00\x00\xc0@\x00\x00\x8aB\x00\x00TB\x00\x00PA\x00\x004B\x00\x00\x00B\x00\x00\\B\x00\x00,B\x00\x008B\x00\x00lB\x00\x00dB\x00\x00`A'
S'\x00\x00\x00\x00\x00\x00\x00\x00\x00\x00\x00\x00\x00\x00\x00\x00\x00\x00\x00\x00\x00\x00\x00\x00\x00\x00\x00\x00\x00\x00\x00\x00\x00\x00\x00\x00\x00\x00\x00\x00\x00\x00\x00\x00\x00\x00\x00\x00\x00\x00\x00\x00\x00\x00\x00\x00\x00\x00\x00\x00\x00\x00\x00\x00\x00\x00\x00\x00\x00\x00\x00\x00'
NtbstRp3450
(dp3451
g2786
(dp3452
g16
I00
sg20
I00
sg17
I01
sg2618
I01
sg25
I00
sg22
I00
sg27
I00
sg19
I00
sg23
I00
sg21
I00
sg24
I00
sg28
I00
sg18
I00
sg2782
I01
ssg2597
g3276
sg2788
(lp3453
g2618
ag2782
ag16
ag17
ag18
ag19
ag20
ag21
ag22
ag23
ag24
ag25
ag27
ag28
asg2790
(lp3454
I72
aI1
asbsg2792
g2793
sg2794
g2603
(g2604
(I0
tS'b'
tRp3455
(I1
(I72
I1
tg60
I01
S'8\x00\x00\x00\n\x00\x00\x00!\x00\x00\x00\x00\x00\x00\x00\x10\x00\x00\x00\x1e\x00\x00\x00<\x00\x00\x00&\x00\x00\x000\x00\x00\x004\x00\x00\x00\t\x00\x00\x00#\x00\x00\x00\x13\x00\x00\x00?\x00\x00\x00G\x00\x00\x003\x00\x00\x00$\x00\x00\x006\x00\x00\x00\x0f\x00\x00\x00;\x00\x00\x00\x04\x00\x00\x00\x0b\x00\x00\x00\x07\x00\x00\x00\x11\x00\x00\x00/\x00\x00\x00\x1c\x00\x00\x00\x0c\x00\x00\x002\x00\x00\x00\x03\x00\x00\x00\x12\x00\x00\x00\x14\x00\x00\x00\x06\x00\x00\x00A\x00\x00\x00:\x00\x00\x00 \x00\x00\x00-\x00\x00\x001\x00\x00\x00"\x00\x00\x00\x0e\x00\x00\x00\'\x00\x00\x00\r\x00\x00\x00\x01\x00\x00\x00(\x00\x00\x00C\x00\x00\x00\x08\x00\x00\x00@\x00\x00\x00D\x00\x00\x00\x1d\x00\x00\x009\x00\x00\x00*\x00\x00\x00\x15\x00\x00\x00\x1a\x00\x00\x00,\x00\x00\x00>\x00\x00\x00\x16\x00\x00\x00B\x00\x00\x00\x1b\x00\x00\x00F\x00\x00\x00%\x00\x00\x00E\x00\x00\x00\x05\x00\x00\x00.\x00\x00\x00\x19\x00\x00\x005\x00\x00\x007\x00\x00\x00\x17\x00\x00\x00\x18\x00\x00\x00\x02\x00\x00\x00+\x00\x00\x00=\x00\x00\x00)\x00\x00\x00\x1f\x00\x00\x00'
tbsg2796
I01
sg2797
I1
sg2798
I-1
sg2799
(lp3456
g1
(g2801
g2601
(dp3457
g1757
g1791
sg1755
g1790
stRp3458
ag1
(g2801
g2601
(dp3459
g1757
g2238
sg1755
g2237
stRp3460
ag1
(g2801
g2601
(dp3461
g1757
g2536
sg1755
g2535
stRp3462
ag1
(g2801
g2601
(dp3463
g1757
g2087
sg1755
g2086
stRp3464
ag1
(g2801
g2601
(dp3465
g1757
g1989
sg1755
g1988
stRp3466
ag1
(g2801
g2601
(dp3467
g1757
g2455
sg1755
g2454
stRp3468
ag1
(g2801
g2601
(dp3469
g1757
g2124
sg1755
g2123
stRp3470
ag1
(g2801
g2601
(dp3471
g1757
g2013
sg1755
g2012
stRp3472
ag1
(g2801
g2601
(dp3473
g1757
g2271
sg1755
g2270
stRp3474
ag1
(g2801
g2601
(dp3475
g1757
g1875
sg1755
g1874
stRp3476
ag1
(g2801
g2601
(dp3477
g1757
g1769
sg1755
g1768
stRp3478
ag1
(g2801
g2601
(dp3479
g1757
g2001
sg1755
g2000
stRp3480
ag1
(g2801
g2601
(dp3481
g1757
g2061
sg1755
g2060
stRp3482
ag1
(g2801
g2601
(dp3483
g1757
g2225
sg1755
g2224
stRp3484
ag1
(g2801
g2601
(dp3485
g1757
g2203
sg1755
g2202
stRp3486
ag1
(g2801
g2601
(dp3487
g1757
g1965
sg1755
g1964
stRp3488
ag1
(g2801
g2601
(dp3489
g1757
g1802
sg1755
g1801
stRp3490
ag1
(g2801
g2601
(dp3491
g1757
g2024
sg1755
g2023
stRp3492
ag1
(g2801
g2601
(dp3493
g1757
g2099
sg1755
g2098
stRp3494
ag1
(g2801
g2601
(dp3495
g1757
g1899
sg1755
g1898
stRp3496
ag1
(g2801
g2601
(dp3497
g1757
g2111
sg1755
g2110
stRp3498
ag1
(g2801
g2601
(dp3499
g1757
g2338
sg1755
g2337
stRp3500
ag1
(g2801
g2601
(dp3501
g1757
g2384
sg1755
g2383
stRp3502
ag1
(g2801
g2601
(dp3503
g1757
g2514
sg1755
g2513
stRp3504
ag1
(g2801
g2601
(dp3505
g1757
g2525
sg1755
g2524
stRp3506
ag1
(g2801
g2601
(dp3507
g1757
g2479
sg1755
g2478
stRp3508
ag1
(g2801
g2601
(dp3509
g1757
g2349
sg1755
g2348
stRp3510
ag1
(g2801
g2601
(dp3511
g1757
g2407
sg1755
g2406
stRp3512
ag1
(g2801
g2601
(dp3513
g1757
g2050
sg1755
g2049
stRp3514
ag1
(g2801
g2601
(dp3515
g1757
g2304
sg1755
g2303
stRp3516
ag1
(g2801
g2601
(dp3517
g1757
g1816
sg1755
g1815
stRp3518
ag1
(g2801
g2601
(dp3519
g1757
g2581
sg1755
g2580
stRp3520
ag1
(g2801
g2601
(dp3521
g1757
g2159
sg1755
g2158
stRp3522
ag1
(g2801
g2601
(dp3523
g1757
g1780
sg1755
g1779
stRp3524
ag1
(g2801
g2601
(dp3525
g1757
g2192
sg1755
g2191
stRp3526
ag1
(g2801
g2601
(dp3527
g1757
g1888
sg1755
g1887
stRp3528
ag1
(g2801
g2601
(dp3529
g1757
g1943
sg1755
g1942
stRp3530
ag1
(g2801
g2601
(dp3531
g1757
g2430
sg1755
g2429
stRp3532
ag1
(g2801
g2601
(dp3533
g1757
g1841
sg1755
g1840
stRp3534
ag1
(g2801
g2601
(dp3535
g1757
g2214
sg1755
g2213
stRp3536
ag1
(g2801
g2601
(dp3537
g1757
g2249
sg1755
g2248
stRp3538
ag1
(g2801
g2601
(dp3539
g1757
g2570
sg1755
g2569
stRp3540
ag1
(g2801
g2601
(dp3541
g1757
g2327
sg1755
g2326
stRp3542
ag1
(g2801
g2601
(dp3543
g1757
g2547
sg1755
g2546
stRp3544
ag1
(g2801
g2601
(dp3545
g1757
g2361
sg1755
g2360
stRp3546
ag1
(g2801
g2601
(dp3547
g1757
g2170
sg1755
g2169
stRp3548
ag1
(g2801
g2601
(dp3549
g1757
g2466
sg1755
g2465
stRp3550
ag1
(g2801
g2601
(dp3551
g1757
g2036
sg1755
g2035
stRp3552
ag1
(g2801
g2601
(dp3553
g1757
g1852
sg1755
g1851
stRp3554
ag1
(g2801
g2601
(dp3555
g1757
g2181
sg1755
g2180
stRp3556
ag1
(g2801
g2601
(dp3557
g1757
g2075
sg1755
g2074
stRp3558
ag1
(g2801
g2601
(dp3559
g1757
g1932
sg1755
g1931
stRp3560
ag1
(g2801
g2601
(dp3561
g1757
g1864
sg1755
g1863
stRp3562
ag1
(g2801
g2601
(dp3563
g1757
g2491
sg1755
g2490
stRp3564
ag1
(g2801
g2601
(dp3565
g1757
g1954
sg1755
g1953
stRp3566
ag1
(g2801
g2601
(dp3567
g1757
g2503
sg1755
g2502
stRp3568
ag1
(g2801
g2601
(dp3569
g1757
g1758
sg1755
g1756
stRp3570
ag1
(g2801
g2601
(dp3571
g1757
g2316
sg1755
g2315
stRp3572
ag1
(g2801
g2601
(dp3573
g1757
g2147
sg1755
g2146
stRp3574
ag1
(g2801
g2601
(dp3575
g1757
g1978
sg1755
g1977
stRp3576
ag1
(g2801
g2601
(dp3577
g1757
g1828
sg1755
g1827
stRp3578
ag1
(g2801
g2601
(dp3579
g1757
g2559
sg1755
g2558
stRp3580
ag1
(g2801
g2601
(dp3581
g1757
g2372
sg1755
g2371
stRp3582
ag1
(g2801
g2601
(dp3583
g1757
g1910
sg1755
g1909
stRp3584
ag1
(g2801
g2601
(dp3585
g1757
g2282
sg1755
g2281
stRp3586
ag1
(g2801
g2601
(dp3587
g1757
g2135
sg1755
g2134
stRp3588
ag1
(g2801
g2601
(dp3589
g1757
g2395
sg1755
g2394
stRp3590
ag1
(g2801
g2601
(dp3591
g1757
g2260
sg1755
g2259
stRp3592
ag1
(g2801
g2601
(dp3593
g1757
g2293
sg1755
g2292
stRp3594
ag1
(g2801
g2601
(dp3595
g1757
g2441
sg1755
g2440
stRp3596
ag1
(g2801
g2601
(dp3597
g1757
g2418
sg1755
g2417
stRp3598
ag1
(g2801
g2601
(dp3599
g1757
g1921
sg1755
g1920
stRp3600
asg2946
Nsg2947
g2579
sg2948
I72
sg2949
I0
sg2950
I72
sbasS'savePickle'
p3601
I00
sb.